<*GNU-Linker-generated-mapfile*> 
generated for DSx86_32 platform 
collect2 version 10.3.0
c:/program files/dspace rcphil 2023-b/compiler/linux_4.14_gcc_10.3/target/x86_64-linux-gnu/bin/../lib/gcc/x86_64-linux-gnu/10.3.0/../../../../x86_64-linux-gnu/bin/ld.exe -plugin c:/program files/dspace rcphil 2023-b/compiler/linux_4.14_gcc_10.3/target/x86_64-linux-gnu/bin/../libexec/gcc/x86_64-linux-gnu/10.3.0/liblto_plugin-0.dll -plugin-opt=c:/program files/dspace rcphil 2023-b/compiler/linux_4.14_gcc_10.3/target/x86_64-linux-gnu/bin/../libexec/gcc/x86_64-linux-gnu/10.3.0/lto-wrapper.exe -plugin-opt=-fresolution=C:\Users\MURTI\AppData\Local\Temp\ccsCRcBf.res -plugin-opt=-pass-through=-lgcc_s -plugin-opt=-pass-through=-lgcc -plugin-opt=-pass-through=-lc -plugin-opt=-pass-through=-lgcc_s -plugin-opt=-pass-through=-lgcc --sysroot=c:\program files\dspace rcphil 2023-b\compiler\linux_4.14_gcc_10.3\target\x86_64-linux-gnu\bin\../../x86_64-linux-gnu --build-id --eh-frame-hdr -m elf_x86_64 -dynamic-linker /lib64/ld-linux-x86-64.so.2 c:/program files/dspace rcphil 2023-b/compiler/linux_4.14_gcc_10.3/target/x86_64-linux-gnu/bin/../../x86_64-linux-gnu/lib/crt1.o c:/program files/dspace rcphil 2023-b/compiler/linux_4.14_gcc_10.3/target/x86_64-linux-gnu/bin/../../x86_64-linux-gnu/lib/crti.o c:/program files/dspace rcphil 2023-b/compiler/linux_4.14_gcc_10.3/target/x86_64-linux-gnu/bin/../lib/gcc/x86_64-linux-gnu/10.3.0/crtbegin.o -Lc:/program files/dspace rcphil 2023-b/compiler/linux_4.14_gcc_10.3/target/x86_64-linux-gnu/bin/../lib/gcc/x86_64-linux-gnu/10.3.0 -Lc:/program files/dspace rcphil 2023-b/compiler/linux_4.14_gcc_10.3/target/x86_64-linux-gnu/bin/../lib/gcc -Lc:/program files/dspace rcphil 2023-b/compiler/linux_4.14_gcc_10.3/target/x86_64-linux-gnu/bin/../lib/gcc/x86_64-linux-gnu/10.3.0/../../../../x86_64-linux-gnu/lib/../lib64 -Lc:/program files/dspace rcphil 2023-b/compiler/linux_4.14_gcc_10.3/target/x86_64-linux-gnu/bin/../lib/gcc/x86_64-linux-gnu/10.3.0/../../../../x86_64-linux-gnu/lib -Lc:/program files/dspace rcphil 2023-b/compiler/linux_4.14_gcc_10.3/target/x86_64-linux-gnu/bin/../../x86_64-linux-gnu/lib -v --unresolved-symbols=ignore-all -lstdc++ -lm -lgcc_s -lgcc -lc -lgcc_s -lgcc c:/program files/dspace rcphil 2023-b/compiler/linux_4.14_gcc_10.3/target/x86_64-linux-gnu/bin/../lib/gcc/x86_64-linux-gnu/10.3.0/crtend.o c:/program files/dspace rcphil 2023-b/compiler/linux_4.14_gcc_10.3/target/x86_64-linux-gnu/bin/../../x86_64-linux-gnu/lib/crtn.o
GNU ld (GNU Binutils) 2.35
Archive member included to satisfy reference by file (symbol)

C:\Users\MURTI\AppData\Local\Temp\dSPACE\CfgDesk\AppCache\3\Build\EXP_03\Compile\DriveSystemControl\DriveSystemControl.a(DriveSystemControl_dsrtmdlfcn.o64)
                              dssimengine_accesspoint.o64 (DriveSystemControl_DSRTInitMdl)
C:\Users\MURTI\AppData\Local\Temp\dSPACE\CfgDesk\AppCache\3\Build\EXP_03\Compile\DriveSystemControl\DriveSystemControl.a(DriveSystemControl_dsrttf.o64)
                              rtosal_task.o64 (DriveSystemControl_DSRTMdlOutputs0)
C:\Users\MURTI\AppData\Local\Temp\dSPACE\CfgDesk\AppCache\3\Build\EXP_03\Compile\DriveSystemControl\DriveSystemControl.a(DriveSystemControl.o64)
                              C:\Users\MURTI\AppData\Local\Temp\dSPACE\CfgDesk\AppCache\3\Build\EXP_03\Compile\DriveSystemControl\DriveSystemControl.a(DriveSystemControl_dsrttf.o64) (DriveSystemControl_output)
C:\Users\MURTI\AppData\Local\Temp\dSPACE\CfgDesk\AppCache\3\Build\EXP_03\Compile\DriveSystemControl\DriveSystemControl.a(DriveSystemControl_data.o64)
                              C:\Users\MURTI\AppData\Local\Temp\dSPACE\CfgDesk\AppCache\3\Build\EXP_03\Compile\DriveSystemControl\DriveSystemControl.a(DriveSystemControl.o64) (DriveSystemControl_P)
C:\Users\MURTI\AppData\Local\Temp\dSPACE\CfgDesk\AppCache\3\Build\EXP_03\Compile\DriveSystemControl\DriveSystemControl.a(DriveSystemControl_dsmpb_bd.o64)
                              C:\Users\MURTI\AppData\Local\Temp\dSPACE\CfgDesk\AppCache\3\Build\EXP_03\Compile\DriveSystemControl\DriveSystemControl.a(DriveSystemControl_dsrtmdlfcn.o64) (InitializeBusStructs)
C:\Users\MURTI\AppData\Local\Temp\dSPACE\CfgDesk\AppCache\3\Build\EXP_03\Compile\DriveSystemControl\DriveSystemControl.a(DriveSystemControl_dsrtvdf.o64)
                              C:\Users\MURTI\AppData\Local\Temp\dSPACE\CfgDesk\AppCache\3\Build\EXP_03\Compile\DriveSystemControl\DriveSystemControl.a(DriveSystemControl.o64) (DriveSystemControl_rti_init_trc_pointers)
C:\Users\MURTI\AppData\Local\Temp\dSPACE\CfgDesk\AppCache\3\Build\EXP_03\Compile\Inspection_12777_1\Inspection_12777_1.a(CanInspection.o64)
                              BusManager_Bus_Configuration_i1_i12777_1.o64 (BM_BUS_CONFIGURATION_i1_i12777_1_CanInspect_Init)
C:\Users\MURTI\AppData\Local\Temp\dSPACE\CfgDesk\AppCache\3\Build\EXP_03\Compile\Inspection_12777_1\Inspection_12777_1.a(CanInspection_Cfg.o64)
                              Bus_Configuration_i1_i12777.o64 (BM_BUS_CONFIGURATION_i1_i12777_1_Inspect_CanMainFunction)
C:\Users\MURTI\AppData\Local\Temp\dSPACE\CfgDesk\AppCache\3\Build\EXP_03\Compile\Inspection_12777_1\Inspection_12777_1.a(InspectionInterface.o64)
                              BusManager_Bus_Configuration_i1_i12777_1.o64 (BM_BUS_CONFIGURATION_i1_i12777_1_Inspect_VariableInitialize)
C:\Users\MURTI\AppData\Local\Temp\dSPACE\CfgDesk\AppCache\3\Build\EXP_03\Compile\BMS_12777_1\BMS_12777_1.a(CanIf.o64)
                              Bus_Configuration_i1_i12777_CAN.o64 (BM_BUS_CONFIGURATION_i1_i12777_1_BMS_CanIf_RxIndication)
C:\Users\MURTI\AppData\Local\Temp\dSPACE\CfgDesk\AppCache\3\Build\EXP_03\Compile\BMS_12777_1\BMS_12777_1.a(CanIf_Cfg.o64)
                              BusManager_Bus_Configuration_i1_i12777_1.o64 (BM_BUS_CONFIGURATION_i1_i12777_1_BMS_CanIf_InitDefaultConfig)
C:\Users\MURTI\AppData\Local\Temp\dSPACE\CfgDesk\AppCache\3\Build\EXP_03\Compile\BMS_12777_1\BMS_12777_1.a(CanIf_Cfg_BusAccess.o64)
                              C:\Users\MURTI\AppData\Local\Temp\dSPACE\CfgDesk\AppCache\3\Build\EXP_03\Compile\BMS_12777_1\BMS_12777_1.a(CanIf_Cfg.o64) (BM_BUS_CONFIGURATION_i1_i12777_1_BMS_gp_CanIf_ChannelAddress)
C:\Users\MURTI\AppData\Local\Temp\dSPACE\CfgDesk\AppCache\3\Build\EXP_03\Compile\BMS_12777_1\BMS_12777_1.a(Rte_generated.o64)
                              BusManager_Bus_Configuration_i1_i12777_1.o64 (BM_BUS_CONFIGURATION_i1_i12777_1_BMS_Rte_VariableInitialize)
C:\Users\MURTI\AppData\Local\Temp\dSPACE\CfgDesk\AppCache\3\Build\EXP_03\Compile\BMS_12777_1\BMS_12777_1.a(Com_generated.o64)
                              BusManager_Bus_Configuration_i1_i12777_1.o64 (BM_BUS_CONFIGURATION_i1_i12777_1_BMS_Com_Init)
C:\Users\MURTI\AppData\Local\Temp\dSPACE\CfgDesk\AppCache\3\Build\EXP_03\Compile\BMS_12777_1\BMS_12777_1.a(Com_Tx_generated.o64)
                              C:\Users\MURTI\AppData\Local\Temp\dSPACE\CfgDesk\AppCache\3\Build\EXP_03\Compile\BMS_12777_1\BMS_12777_1.a(Com_generated.o64) (BM_BUS_CONFIGURATION_i1_i12777_1_BMS_Com_Tx_Init)
C:\Users\MURTI\AppData\Local\Temp\dSPACE\CfgDesk\AppCache\3\Build\EXP_03\Compile\BMS_12777_1\BMS_12777_1.a(Com_Rx_generated.o64)
                              C:\Users\MURTI\AppData\Local\Temp\dSPACE\CfgDesk\AppCache\3\Build\EXP_03\Compile\BMS_12777_1\BMS_12777_1.a(Com_generated.o64) (BM_BUS_CONFIGURATION_i1_i12777_1_BMS_Com_Rx_Init)
C:\Users\MURTI\AppData\Local\Temp\dSPACE\CfgDesk\AppCache\3\Build\EXP_03\Compile\BMS_12777_1\BMS_12777_1.a(PduR_Cfg_generated.o64)
                              BusManager_Bus_Configuration_i1_i12777_1.o64 (BM_BUS_CONFIGURATION_i1_i12777_1_BMS_PduR_Config)
C:\Users\MURTI\AppData\Local\Temp\dSPACE\CfgDesk\AppCache\3\Build\EXP_03\Compile\BMS_12777_1\BMS_12777_1.a(PduR_generated.o64)
                              BusManager_Bus_Configuration_i1_i12777_1.o64 (BM_BUS_CONFIGURATION_i1_i12777_1_BMS_PduR_Init)
C:\Users\MURTI\AppData\Local\Temp\dSPACE\CfgDesk\AppCache\3\Build\EXP_03\Compile\BMS_12777_1\BMS_12777_1.a(SchM_CanIf.o64)
                              C:\Users\MURTI\AppData\Local\Temp\dSPACE\CfgDesk\AppCache\3\Build\EXP_03\Compile\BMS_12777_1\BMS_12777_1.a(CanIf.o64) (BM_BUS_CONFIGURATION_i1_i12777_1_BMS_SchM_Enter_CanIf)
C:\Users\MURTI\AppData\Local\Temp\dSPACE\CfgDesk\AppCache\3\Build\EXP_03\Compile\IPC_12777_1\IPC_12777_1.a(CanIf.o64)
                              Bus_Configuration_i1_i12777_CAN.o64 (BM_BUS_CONFIGURATION_i1_i12777_1_IPC_CanIf_RxIndication)
C:\Users\MURTI\AppData\Local\Temp\dSPACE\CfgDesk\AppCache\3\Build\EXP_03\Compile\IPC_12777_1\IPC_12777_1.a(CanIf_Cfg.o64)
                              BusManager_Bus_Configuration_i1_i12777_1.o64 (BM_BUS_CONFIGURATION_i1_i12777_1_IPC_CanIf_InitDefaultConfig)
C:\Users\MURTI\AppData\Local\Temp\dSPACE\CfgDesk\AppCache\3\Build\EXP_03\Compile\IPC_12777_1\IPC_12777_1.a(CanIf_Cfg_BusAccess.o64)
                              C:\Users\MURTI\AppData\Local\Temp\dSPACE\CfgDesk\AppCache\3\Build\EXP_03\Compile\IPC_12777_1\IPC_12777_1.a(CanIf_Cfg.o64) (BM_BUS_CONFIGURATION_i1_i12777_1_IPC_gp_CanIf_ChannelAddress)
C:\Users\MURTI\AppData\Local\Temp\dSPACE\CfgDesk\AppCache\3\Build\EXP_03\Compile\IPC_12777_1\IPC_12777_1.a(Rte_generated.o64)
                              BusManager_Bus_Configuration_i1_i12777_1.o64 (BM_BUS_CONFIGURATION_i1_i12777_1_IPC_Rte_VariableInitialize)
C:\Users\MURTI\AppData\Local\Temp\dSPACE\CfgDesk\AppCache\3\Build\EXP_03\Compile\IPC_12777_1\IPC_12777_1.a(Com_generated.o64)
                              BusManager_Bus_Configuration_i1_i12777_1.o64 (BM_BUS_CONFIGURATION_i1_i12777_1_IPC_Com_Init)
C:\Users\MURTI\AppData\Local\Temp\dSPACE\CfgDesk\AppCache\3\Build\EXP_03\Compile\IPC_12777_1\IPC_12777_1.a(Com_Tx_generated.o64)
                              C:\Users\MURTI\AppData\Local\Temp\dSPACE\CfgDesk\AppCache\3\Build\EXP_03\Compile\IPC_12777_1\IPC_12777_1.a(Com_generated.o64) (BM_BUS_CONFIGURATION_i1_i12777_1_IPC_Com_Tx_Init)
C:\Users\MURTI\AppData\Local\Temp\dSPACE\CfgDesk\AppCache\3\Build\EXP_03\Compile\IPC_12777_1\IPC_12777_1.a(Com_Rx_generated.o64)
                              C:\Users\MURTI\AppData\Local\Temp\dSPACE\CfgDesk\AppCache\3\Build\EXP_03\Compile\IPC_12777_1\IPC_12777_1.a(Com_generated.o64) (BM_BUS_CONFIGURATION_i1_i12777_1_IPC_Com_Rx_Init)
C:\Users\MURTI\AppData\Local\Temp\dSPACE\CfgDesk\AppCache\3\Build\EXP_03\Compile\IPC_12777_1\IPC_12777_1.a(PduR_Cfg_generated.o64)
                              BusManager_Bus_Configuration_i1_i12777_1.o64 (BM_BUS_CONFIGURATION_i1_i12777_1_IPC_PduR_Config)
C:\Users\MURTI\AppData\Local\Temp\dSPACE\CfgDesk\AppCache\3\Build\EXP_03\Compile\IPC_12777_1\IPC_12777_1.a(PduR_generated.o64)
                              BusManager_Bus_Configuration_i1_i12777_1.o64 (BM_BUS_CONFIGURATION_i1_i12777_1_IPC_PduR_Init)
C:\Users\MURTI\AppData\Local\Temp\dSPACE\CfgDesk\AppCache\3\Build\EXP_03\Compile\IPC_12777_1\IPC_12777_1.a(SchM_CanIf.o64)
                              C:\Users\MURTI\AppData\Local\Temp\dSPACE\CfgDesk\AppCache\3\Build\EXP_03\Compile\IPC_12777_1\IPC_12777_1.a(CanIf.o64) (BM_BUS_CONFIGURATION_i1_i12777_1_IPC_SchM_Enter_CanIf)
C:\Users\MURTI\AppData\Local\Temp\dSPACE\CfgDesk\AppCache\3\Build\EXP_03\Compile\TCU_12777_1\TCU_12777_1.a(CanIf.o64)
                              Bus_Configuration_i1_i12777_CAN.o64 (BM_BUS_CONFIGURATION_i1_i12777_1_TCU_CanIf_RxIndication)
C:\Users\MURTI\AppData\Local\Temp\dSPACE\CfgDesk\AppCache\3\Build\EXP_03\Compile\TCU_12777_1\TCU_12777_1.a(CanIf_Cfg.o64)
                              BusManager_Bus_Configuration_i1_i12777_1.o64 (BM_BUS_CONFIGURATION_i1_i12777_1_TCU_CanIf_InitDefaultConfig)
C:\Users\MURTI\AppData\Local\Temp\dSPACE\CfgDesk\AppCache\3\Build\EXP_03\Compile\TCU_12777_1\TCU_12777_1.a(CanIf_Cfg_BusAccess.o64)
                              C:\Users\MURTI\AppData\Local\Temp\dSPACE\CfgDesk\AppCache\3\Build\EXP_03\Compile\TCU_12777_1\TCU_12777_1.a(CanIf_Cfg.o64) (BM_BUS_CONFIGURATION_i1_i12777_1_TCU_gp_CanIf_ChannelAddress)
C:\Users\MURTI\AppData\Local\Temp\dSPACE\CfgDesk\AppCache\3\Build\EXP_03\Compile\TCU_12777_1\TCU_12777_1.a(Rte_generated.o64)
                              BusManager_Bus_Configuration_i1_i12777_1.o64 (BM_BUS_CONFIGURATION_i1_i12777_1_TCU_Rte_VariableInitialize)
C:\Users\MURTI\AppData\Local\Temp\dSPACE\CfgDesk\AppCache\3\Build\EXP_03\Compile\TCU_12777_1\TCU_12777_1.a(Com_generated.o64)
                              BusManager_Bus_Configuration_i1_i12777_1.o64 (BM_BUS_CONFIGURATION_i1_i12777_1_TCU_Com_Init)
C:\Users\MURTI\AppData\Local\Temp\dSPACE\CfgDesk\AppCache\3\Build\EXP_03\Compile\TCU_12777_1\TCU_12777_1.a(Com_Tx_generated.o64)
                              C:\Users\MURTI\AppData\Local\Temp\dSPACE\CfgDesk\AppCache\3\Build\EXP_03\Compile\TCU_12777_1\TCU_12777_1.a(Com_generated.o64) (BM_BUS_CONFIGURATION_i1_i12777_1_TCU_Com_Tx_Init)
C:\Users\MURTI\AppData\Local\Temp\dSPACE\CfgDesk\AppCache\3\Build\EXP_03\Compile\TCU_12777_1\TCU_12777_1.a(Com_Rx_generated.o64)
                              C:\Users\MURTI\AppData\Local\Temp\dSPACE\CfgDesk\AppCache\3\Build\EXP_03\Compile\TCU_12777_1\TCU_12777_1.a(Com_generated.o64) (BM_BUS_CONFIGURATION_i1_i12777_1_TCU_Com_Rx_Init)
C:\Users\MURTI\AppData\Local\Temp\dSPACE\CfgDesk\AppCache\3\Build\EXP_03\Compile\TCU_12777_1\TCU_12777_1.a(PduR_Cfg_generated.o64)
                              BusManager_Bus_Configuration_i1_i12777_1.o64 (BM_BUS_CONFIGURATION_i1_i12777_1_TCU_PduR_Config)
C:\Users\MURTI\AppData\Local\Temp\dSPACE\CfgDesk\AppCache\3\Build\EXP_03\Compile\TCU_12777_1\TCU_12777_1.a(PduR_generated.o64)
                              BusManager_Bus_Configuration_i1_i12777_1.o64 (BM_BUS_CONFIGURATION_i1_i12777_1_TCU_PduR_Init)
C:\Users\MURTI\AppData\Local\Temp\dSPACE\CfgDesk\AppCache\3\Build\EXP_03\Compile\TCU_12777_1\TCU_12777_1.a(SchM_CanIf.o64)
                              C:\Users\MURTI\AppData\Local\Temp\dSPACE\CfgDesk\AppCache\3\Build\EXP_03\Compile\TCU_12777_1\TCU_12777_1.a(CanIf.o64) (BM_BUS_CONFIGURATION_i1_i12777_1_TCU_SchM_Enter_CanIf)
C:\Users\MURTI\AppData\Local\Temp\dSPACE\CfgDesk\AppCache\3\Build\EXP_03\Compile\Telematics_12777_1\Telematics_12777_1.a(CanIf.o64)
                              Bus_Configuration_i1_i12777_CAN.o64 (BM_BUS_CONFIGURATION_i1_i12777_1_TELEMATICS_CanIf_RxIndication)
C:\Users\MURTI\AppData\Local\Temp\dSPACE\CfgDesk\AppCache\3\Build\EXP_03\Compile\Telematics_12777_1\Telematics_12777_1.a(CanIf_Cfg.o64)
                              BusManager_Bus_Configuration_i1_i12777_1.o64 (BM_BUS_CONFIGURATION_i1_i12777_1_TELEMATICS_CanIf_InitDefaultConfig)
C:\Users\MURTI\AppData\Local\Temp\dSPACE\CfgDesk\AppCache\3\Build\EXP_03\Compile\Telematics_12777_1\Telematics_12777_1.a(CanIf_Cfg_BusAccess.o64)
                              C:\Users\MURTI\AppData\Local\Temp\dSPACE\CfgDesk\AppCache\3\Build\EXP_03\Compile\Telematics_12777_1\Telematics_12777_1.a(CanIf_Cfg.o64) (BM_BUS_CONFIGURATION_i1_i12777_1_TELEMATICS_gp_CanIf_ChannelAddress)
C:\Users\MURTI\AppData\Local\Temp\dSPACE\CfgDesk\AppCache\3\Build\EXP_03\Compile\Telematics_12777_1\Telematics_12777_1.a(Rte_generated.o64)
                              BusManager_Bus_Configuration_i1_i12777_1.o64 (BM_BUS_CONFIGURATION_i1_i12777_1_TELEMATICS_Rte_VariableInitialize)
C:\Users\MURTI\AppData\Local\Temp\dSPACE\CfgDesk\AppCache\3\Build\EXP_03\Compile\Telematics_12777_1\Telematics_12777_1.a(Com_generated.o64)
                              BusManager_Bus_Configuration_i1_i12777_1.o64 (BM_BUS_CONFIGURATION_i1_i12777_1_TELEMATICS_Com_Init)
C:\Users\MURTI\AppData\Local\Temp\dSPACE\CfgDesk\AppCache\3\Build\EXP_03\Compile\Telematics_12777_1\Telematics_12777_1.a(Com_Tx_generated.o64)
                              C:\Users\MURTI\AppData\Local\Temp\dSPACE\CfgDesk\AppCache\3\Build\EXP_03\Compile\Telematics_12777_1\Telematics_12777_1.a(Com_generated.o64) (BM_BUS_CONFIGURATION_i1_i12777_1_TELEMATICS_Com_Tx_Init)
C:\Users\MURTI\AppData\Local\Temp\dSPACE\CfgDesk\AppCache\3\Build\EXP_03\Compile\Telematics_12777_1\Telematics_12777_1.a(Com_Rx_generated.o64)
                              C:\Users\MURTI\AppData\Local\Temp\dSPACE\CfgDesk\AppCache\3\Build\EXP_03\Compile\Telematics_12777_1\Telematics_12777_1.a(Com_generated.o64) (BM_BUS_CONFIGURATION_i1_i12777_1_TELEMATICS_Com_Rx_Init)
C:\Users\MURTI\AppData\Local\Temp\dSPACE\CfgDesk\AppCache\3\Build\EXP_03\Compile\Telematics_12777_1\Telematics_12777_1.a(PduR_Cfg_generated.o64)
                              BusManager_Bus_Configuration_i1_i12777_1.o64 (BM_BUS_CONFIGURATION_i1_i12777_1_TELEMATICS_PduR_Config)
C:\Users\MURTI\AppData\Local\Temp\dSPACE\CfgDesk\AppCache\3\Build\EXP_03\Compile\Telematics_12777_1\Telematics_12777_1.a(PduR_generated.o64)
                              BusManager_Bus_Configuration_i1_i12777_1.o64 (BM_BUS_CONFIGURATION_i1_i12777_1_TELEMATICS_PduR_Init)
C:\Users\MURTI\AppData\Local\Temp\dSPACE\CfgDesk\AppCache\3\Build\EXP_03\Compile\Telematics_12777_1\Telematics_12777_1.a(SchM_CanIf.o64)
                              C:\Users\MURTI\AppData\Local\Temp\dSPACE\CfgDesk\AppCache\3\Build\EXP_03\Compile\Telematics_12777_1\Telematics_12777_1.a(CanIf.o64) (BM_BUS_CONFIGURATION_i1_i12777_1_TELEMATICS_SchM_Enter_CanIf)
C:\Users\MURTI\AppData\Local\Temp\dSPACE\CfgDesk\AppCache\3\Build\EXP_03\Compile\Manipulation_12777_1\Manipulation_12777_1.a(CanManipulation.o64)
                              BusManager_Bus_Configuration_i1_i12777_1.o64 (BM_BUS_CONFIGURATION_i1_i12777_1_CanManipulation_Init)
C:\Users\MURTI\AppData\Local\Temp\dSPACE\CfgDesk\AppCache\3\Build\EXP_03\Compile\Manipulation_12777_1\Manipulation_12777_1.a(CanManipulation_Cfg.o64)
                              BusManager_Bus_Configuration_i1_i12777_1.o64 (BM_BUS_CONFIGURATION_i1_i12777_1_g_CanManipulationConfig)
C:\Users\MURTI\AppData\Local\Temp\dSPACE\CfgDesk\AppCache\3\Build\EXP_03\Compile\Manipulation_12777_1\Manipulation_12777_1.a(CAN0_0.o64)
                              C:\Users\MURTI\AppData\Local\Temp\dSPACE\CfgDesk\AppCache\3\Build\EXP_03\Compile\Manipulation_12777_1\Manipulation_12777_1.a(CanManipulation_Cfg.o64) (BM_BUS_CONFIGURATION_i1_i12777_1__M__TCU05_CAN0_14666)
C:\Users\MURTI\AppData\Local\Temp\dSPACE\CfgDesk\AppCache\3\Build\EXP_03\Compile\Manipulation_12777_1\Manipulation_12777_1.a(ManipulationInterface.o64)
                              BusManager_Bus_Configuration_i1_i12777_1.o64 (BM_BUS_CONFIGURATION_i1_i12777_1_Manip_VariableInitialize)
C:\Users\MURTI\AppData\Local\Temp\dSPACE\CfgDesk\AppCache\3\Build\EXP_03\Compile\Manipulation_12777_1\Manipulation_12777_1.a(ManipulationInit_0.o64)
                              C:\Users\MURTI\AppData\Local\Temp\dSPACE\CfgDesk\AppCache\3\Build\EXP_03\Compile\Manipulation_12777_1\Manipulation_12777_1.a(ManipulationInterface.o64) (BM_BUS_CONFIGURATION_i1_i12777_1_Manip_VariableInitialize_0)
C:\Users\MURTI\AppData\Local\Temp\dSPACE\CfgDesk\AppCache\3\Build\EXP_03\Compile\ManipulationHook_21408\ManipulationHook_21408.a(ManipulationHook.o64)
                              C:\Users\MURTI\AppData\Local\Temp\dSPACE\CfgDesk\AppCache\3\Build\EXP_03\Compile\Manipulation_12777_1\Manipulation_12777_1.a(CanManipulation.o64) (ManipulationHookRegister_CAN)
C:\Program Files\dSPACE RCPHIL 2023-B\Compiler\Linux_4.14_GCC_10.3\target\x86_64-linux-gnu\lib\libc_nonshared.a(elf-init.oS)
                              c:/program files/dspace rcphil 2023-b/compiler/linux_4.14_gcc_10.3/target/x86_64-linux-gnu/bin/../../x86_64-linux-gnu/lib/Scrt1.o (__libc_csu_init)

Merging program properties

Removed property 0xc0000002 to merge c:/program files/dspace rcphil 2023-b/compiler/linux_4.14_gcc_10.3/target/x86_64-linux-gnu/bin/../lib/gcc/x86_64-linux-gnu/10.3.0/crtbeginS.o (0x3) and c:/program files/dspace rcphil 2023-b/compiler/linux_4.14_gcc_10.3/target/x86_64-linux-gnu/bin/../../x86_64-linux-gnu/lib/Scrt1.o (not found)
Removed property 0xc0000002 to merge c:/program files/dspace rcphil 2023-b/compiler/linux_4.14_gcc_10.3/target/x86_64-linux-gnu/bin/../lib/gcc/x86_64-linux-gnu/10.3.0/crtbeginS.o (not found) and c:/program files/dspace rcphil 2023-b/compiler/linux_4.14_gcc_10.3/target/x86_64-linux-gnu/bin/../lib/gcc/x86_64-linux-gnu/10.3.0/crtendS.o (0x3)

As-needed library included to satisfy reference by file (symbol)

libDsRealTimeTestingRP.so.1   rtosal_task.o64 (dsrtt_script_service_post_computation)

Discarded input sections

 .note.GNU-stack
                0x0000000000000000        0x0 c:/program files/dspace rcphil 2023-b/compiler/linux_4.14_gcc_10.3/target/x86_64-linux-gnu/bin/../../x86_64-linux-gnu/lib/Scrt1.o
 .note.GNU-stack
                0x0000000000000000        0x0 c:/program files/dspace rcphil 2023-b/compiler/linux_4.14_gcc_10.3/target/x86_64-linux-gnu/bin/../../x86_64-linux-gnu/lib/crti.o
 .note.GNU-stack
                0x0000000000000000        0x0 c:/program files/dspace rcphil 2023-b/compiler/linux_4.14_gcc_10.3/target/x86_64-linux-gnu/bin/../lib/gcc/x86_64-linux-gnu/10.3.0/crtbeginS.o
 .note.gnu.property
                0x0000000000000000       0x20 c:/program files/dspace rcphil 2023-b/compiler/linux_4.14_gcc_10.3/target/x86_64-linux-gnu/bin/../lib/gcc/x86_64-linux-gnu/10.3.0/crtbeginS.o
 .note.GNU-stack
                0x0000000000000000        0x0 StateManager_generated.o64
 .note.GNU-stack
                0x0000000000000000        0x0 ScalingFunctions.o64
 .note.GNU-stack
                0x0000000000000000        0x0 Hashmap.o64
 .note.GNU-stack
                0x0000000000000000        0x0 HelperMethods.o64
 .note.GNU-stack
                0x0000000000000000        0x0 mdladapter_mdlfunctions.o64
 .note.GNU-stack
                0x0000000000000000        0x0 mdlCode_ap.o64
 .note.GNU-stack
                0x0000000000000000        0x0 data_in_ap.o64
 .note.GNU-stack
                0x0000000000000000        0x0 data_out_ap.o64
 .note.GNU-stack
                0x0000000000000000        0x0 fm_entry_ap.o64
 .note.GNU-stack
                0x0000000000000000        0x0 fm_exit_ap.o64
 .note.GNU-stack
                0x0000000000000000        0x0 dssimengine_accesspoint.o64
 .note.GNU-stack
                0x0000000000000000        0x0 dssimengine_api.o64
 .group         0x0000000000000000        0x8 dssimengine_main.o64
 .group         0x0000000000000000        0xc dssimengine_main.o64
 .group         0x0000000000000000        0xc dssimengine_main.o64
 .group         0x0000000000000000        0xc dssimengine_main.o64
 .note.GNU-stack
                0x0000000000000000        0x0 dssimengine_main.o64
 .group         0x0000000000000000        0x8 rtosal_task.o64
 .group         0x0000000000000000        0xc rtosal_task.o64
 .group         0x0000000000000000        0x8 rtosal_task.o64
 .group         0x0000000000000000        0xc rtosal_task.o64
 .group         0x0000000000000000        0x8 rtosal_task.o64
 .group         0x0000000000000000        0xc rtosal_task.o64
 .group         0x0000000000000000        0xc rtosal_task.o64
 .group         0x0000000000000000        0xc rtosal_task.o64
 .group         0x0000000000000000        0xc rtosal_task.o64
 .group         0x0000000000000000        0xc rtosal_task.o64
 .data.rel.local.DW.ref.__gxx_personality_v0
                0x0000000000000000        0x8 rtosal_task.o64
 .note.GNU-stack
                0x0000000000000000        0x0 rtosal_task.o64
 .note.GNU-stack
                0x0000000000000000        0x0 rtosal_taskap.o64
 .note.GNU-stack
                0x0000000000000000        0x0 rtosal_simengineap.o64
 .note.GNU-stack
                0x0000000000000000        0x0 IOCode_Data.o64
 .note.GNU-stack
                0x0000000000000000        0x0 dssimengine_accesspoint_CAN.o64
 .note.GNU-stack
                0x0000000000000000        0x0 IOCode_TestAutomationInit_0.o64
 .note.GNU-stack
                0x0000000000000000        0x0 BusManager_Bus_Configuration_i1_i12777_1.o64
 .note.GNU-stack
                0x0000000000000000        0x0 Bus_Configuration_i1_i12777.o64
 .note.GNU-stack
                0x0000000000000000        0x0 Bus_Configuration_i1_i12777_tx.o64
 .note.GNU-stack
                0x0000000000000000        0x0 Bus_Configuration_i1_i12777_if.o64
 .note.GNU-stack
                0x0000000000000000        0x0 Bus_Configuration_i1_i12777_CAN.o64
 .note.GNU-stack
                0x0000000000000000        0x0 BusRtCode.o64
 .note.GNU-stack
                0x0000000000000000        0x0 ConvertHwTimeToSimTime.o64
 .note.GNU-stack
                0x0000000000000000        0x0 C:\Users\MURTI\AppData\Local\Temp\dSPACE\CfgDesk\AppCache\3\Build\EXP_03\Compile\DriveSystemControl\DriveSystemControl.a(DriveSystemControl_dsrtmdlfcn.o64)
 .note.GNU-stack
                0x0000000000000000        0x0 C:\Users\MURTI\AppData\Local\Temp\dSPACE\CfgDesk\AppCache\3\Build\EXP_03\Compile\DriveSystemControl\DriveSystemControl.a(DriveSystemControl_dsrttf.o64)
 .note.GNU-stack
                0x0000000000000000        0x0 C:\Users\MURTI\AppData\Local\Temp\dSPACE\CfgDesk\AppCache\3\Build\EXP_03\Compile\DriveSystemControl\DriveSystemControl.a(DriveSystemControl.o64)
 .note.GNU-stack
                0x0000000000000000        0x0 C:\Users\MURTI\AppData\Local\Temp\dSPACE\CfgDesk\AppCache\3\Build\EXP_03\Compile\DriveSystemControl\DriveSystemControl.a(DriveSystemControl_data.o64)
 .note.GNU-stack
                0x0000000000000000        0x0 C:\Users\MURTI\AppData\Local\Temp\dSPACE\CfgDesk\AppCache\3\Build\EXP_03\Compile\DriveSystemControl\DriveSystemControl.a(DriveSystemControl_dsmpb_bd.o64)
 .note.GNU-stack
                0x0000000000000000        0x0 C:\Users\MURTI\AppData\Local\Temp\dSPACE\CfgDesk\AppCache\3\Build\EXP_03\Compile\DriveSystemControl\DriveSystemControl.a(DriveSystemControl_dsrtvdf.o64)
 .note.GNU-stack
                0x0000000000000000        0x0 C:\Users\MURTI\AppData\Local\Temp\dSPACE\CfgDesk\AppCache\3\Build\EXP_03\Compile\Inspection_12777_1\Inspection_12777_1.a(CanInspection.o64)
 .note.GNU-stack
                0x0000000000000000        0x0 C:\Users\MURTI\AppData\Local\Temp\dSPACE\CfgDesk\AppCache\3\Build\EXP_03\Compile\Inspection_12777_1\Inspection_12777_1.a(CanInspection_Cfg.o64)
 .note.GNU-stack
                0x0000000000000000        0x0 C:\Users\MURTI\AppData\Local\Temp\dSPACE\CfgDesk\AppCache\3\Build\EXP_03\Compile\Inspection_12777_1\Inspection_12777_1.a(InspectionInterface.o64)
 .note.GNU-stack
                0x0000000000000000        0x0 C:\Users\MURTI\AppData\Local\Temp\dSPACE\CfgDesk\AppCache\3\Build\EXP_03\Compile\BMS_12777_1\BMS_12777_1.a(CanIf.o64)
 .note.GNU-stack
                0x0000000000000000        0x0 C:\Users\MURTI\AppData\Local\Temp\dSPACE\CfgDesk\AppCache\3\Build\EXP_03\Compile\BMS_12777_1\BMS_12777_1.a(CanIf_Cfg.o64)
 .note.GNU-stack
                0x0000000000000000        0x0 C:\Users\MURTI\AppData\Local\Temp\dSPACE\CfgDesk\AppCache\3\Build\EXP_03\Compile\BMS_12777_1\BMS_12777_1.a(CanIf_Cfg_BusAccess.o64)
 .note.GNU-stack
                0x0000000000000000        0x0 C:\Users\MURTI\AppData\Local\Temp\dSPACE\CfgDesk\AppCache\3\Build\EXP_03\Compile\BMS_12777_1\BMS_12777_1.a(Rte_generated.o64)
 .note.GNU-stack
                0x0000000000000000        0x0 C:\Users\MURTI\AppData\Local\Temp\dSPACE\CfgDesk\AppCache\3\Build\EXP_03\Compile\BMS_12777_1\BMS_12777_1.a(Com_generated.o64)
 .note.GNU-stack
                0x0000000000000000        0x0 C:\Users\MURTI\AppData\Local\Temp\dSPACE\CfgDesk\AppCache\3\Build\EXP_03\Compile\BMS_12777_1\BMS_12777_1.a(Com_Tx_generated.o64)
 .note.GNU-stack
                0x0000000000000000        0x0 C:\Users\MURTI\AppData\Local\Temp\dSPACE\CfgDesk\AppCache\3\Build\EXP_03\Compile\BMS_12777_1\BMS_12777_1.a(Com_Rx_generated.o64)
 .note.GNU-stack
                0x0000000000000000        0x0 C:\Users\MURTI\AppData\Local\Temp\dSPACE\CfgDesk\AppCache\3\Build\EXP_03\Compile\BMS_12777_1\BMS_12777_1.a(PduR_Cfg_generated.o64)
 .note.GNU-stack
                0x0000000000000000        0x0 C:\Users\MURTI\AppData\Local\Temp\dSPACE\CfgDesk\AppCache\3\Build\EXP_03\Compile\BMS_12777_1\BMS_12777_1.a(PduR_generated.o64)
 .note.GNU-stack
                0x0000000000000000        0x0 C:\Users\MURTI\AppData\Local\Temp\dSPACE\CfgDesk\AppCache\3\Build\EXP_03\Compile\BMS_12777_1\BMS_12777_1.a(SchM_CanIf.o64)
 .note.GNU-stack
                0x0000000000000000        0x0 C:\Users\MURTI\AppData\Local\Temp\dSPACE\CfgDesk\AppCache\3\Build\EXP_03\Compile\IPC_12777_1\IPC_12777_1.a(CanIf.o64)
 .note.GNU-stack
                0x0000000000000000        0x0 C:\Users\MURTI\AppData\Local\Temp\dSPACE\CfgDesk\AppCache\3\Build\EXP_03\Compile\IPC_12777_1\IPC_12777_1.a(CanIf_Cfg.o64)
 .note.GNU-stack
                0x0000000000000000        0x0 C:\Users\MURTI\AppData\Local\Temp\dSPACE\CfgDesk\AppCache\3\Build\EXP_03\Compile\IPC_12777_1\IPC_12777_1.a(CanIf_Cfg_BusAccess.o64)
 .note.GNU-stack
                0x0000000000000000        0x0 C:\Users\MURTI\AppData\Local\Temp\dSPACE\CfgDesk\AppCache\3\Build\EXP_03\Compile\IPC_12777_1\IPC_12777_1.a(Rte_generated.o64)
 .note.GNU-stack
                0x0000000000000000        0x0 C:\Users\MURTI\AppData\Local\Temp\dSPACE\CfgDesk\AppCache\3\Build\EXP_03\Compile\IPC_12777_1\IPC_12777_1.a(Com_generated.o64)
 .note.GNU-stack
                0x0000000000000000        0x0 C:\Users\MURTI\AppData\Local\Temp\dSPACE\CfgDesk\AppCache\3\Build\EXP_03\Compile\IPC_12777_1\IPC_12777_1.a(Com_Tx_generated.o64)
 .note.GNU-stack
                0x0000000000000000        0x0 C:\Users\MURTI\AppData\Local\Temp\dSPACE\CfgDesk\AppCache\3\Build\EXP_03\Compile\IPC_12777_1\IPC_12777_1.a(Com_Rx_generated.o64)
 .note.GNU-stack
                0x0000000000000000        0x0 C:\Users\MURTI\AppData\Local\Temp\dSPACE\CfgDesk\AppCache\3\Build\EXP_03\Compile\IPC_12777_1\IPC_12777_1.a(PduR_Cfg_generated.o64)
 .note.GNU-stack
                0x0000000000000000        0x0 C:\Users\MURTI\AppData\Local\Temp\dSPACE\CfgDesk\AppCache\3\Build\EXP_03\Compile\IPC_12777_1\IPC_12777_1.a(PduR_generated.o64)
 .note.GNU-stack
                0x0000000000000000        0x0 C:\Users\MURTI\AppData\Local\Temp\dSPACE\CfgDesk\AppCache\3\Build\EXP_03\Compile\IPC_12777_1\IPC_12777_1.a(SchM_CanIf.o64)
 .note.GNU-stack
                0x0000000000000000        0x0 C:\Users\MURTI\AppData\Local\Temp\dSPACE\CfgDesk\AppCache\3\Build\EXP_03\Compile\TCU_12777_1\TCU_12777_1.a(CanIf.o64)
 .note.GNU-stack
                0x0000000000000000        0x0 C:\Users\MURTI\AppData\Local\Temp\dSPACE\CfgDesk\AppCache\3\Build\EXP_03\Compile\TCU_12777_1\TCU_12777_1.a(CanIf_Cfg.o64)
 .note.GNU-stack
                0x0000000000000000        0x0 C:\Users\MURTI\AppData\Local\Temp\dSPACE\CfgDesk\AppCache\3\Build\EXP_03\Compile\TCU_12777_1\TCU_12777_1.a(CanIf_Cfg_BusAccess.o64)
 .note.GNU-stack
                0x0000000000000000        0x0 C:\Users\MURTI\AppData\Local\Temp\dSPACE\CfgDesk\AppCache\3\Build\EXP_03\Compile\TCU_12777_1\TCU_12777_1.a(Rte_generated.o64)
 .note.GNU-stack
                0x0000000000000000        0x0 C:\Users\MURTI\AppData\Local\Temp\dSPACE\CfgDesk\AppCache\3\Build\EXP_03\Compile\TCU_12777_1\TCU_12777_1.a(Com_generated.o64)
 .note.GNU-stack
                0x0000000000000000        0x0 C:\Users\MURTI\AppData\Local\Temp\dSPACE\CfgDesk\AppCache\3\Build\EXP_03\Compile\TCU_12777_1\TCU_12777_1.a(Com_Tx_generated.o64)
 .note.GNU-stack
                0x0000000000000000        0x0 C:\Users\MURTI\AppData\Local\Temp\dSPACE\CfgDesk\AppCache\3\Build\EXP_03\Compile\TCU_12777_1\TCU_12777_1.a(Com_Rx_generated.o64)
 .note.GNU-stack
                0x0000000000000000        0x0 C:\Users\MURTI\AppData\Local\Temp\dSPACE\CfgDesk\AppCache\3\Build\EXP_03\Compile\TCU_12777_1\TCU_12777_1.a(PduR_Cfg_generated.o64)
 .note.GNU-stack
                0x0000000000000000        0x0 C:\Users\MURTI\AppData\Local\Temp\dSPACE\CfgDesk\AppCache\3\Build\EXP_03\Compile\TCU_12777_1\TCU_12777_1.a(PduR_generated.o64)
 .note.GNU-stack
                0x0000000000000000        0x0 C:\Users\MURTI\AppData\Local\Temp\dSPACE\CfgDesk\AppCache\3\Build\EXP_03\Compile\TCU_12777_1\TCU_12777_1.a(SchM_CanIf.o64)
 .note.GNU-stack
                0x0000000000000000        0x0 C:\Users\MURTI\AppData\Local\Temp\dSPACE\CfgDesk\AppCache\3\Build\EXP_03\Compile\Telematics_12777_1\Telematics_12777_1.a(CanIf.o64)
 .note.GNU-stack
                0x0000000000000000        0x0 C:\Users\MURTI\AppData\Local\Temp\dSPACE\CfgDesk\AppCache\3\Build\EXP_03\Compile\Telematics_12777_1\Telematics_12777_1.a(CanIf_Cfg.o64)
 .note.GNU-stack
                0x0000000000000000        0x0 C:\Users\MURTI\AppData\Local\Temp\dSPACE\CfgDesk\AppCache\3\Build\EXP_03\Compile\Telematics_12777_1\Telematics_12777_1.a(CanIf_Cfg_BusAccess.o64)
 .note.GNU-stack
                0x0000000000000000        0x0 C:\Users\MURTI\AppData\Local\Temp\dSPACE\CfgDesk\AppCache\3\Build\EXP_03\Compile\Telematics_12777_1\Telematics_12777_1.a(Rte_generated.o64)
 .note.GNU-stack
                0x0000000000000000        0x0 C:\Users\MURTI\AppData\Local\Temp\dSPACE\CfgDesk\AppCache\3\Build\EXP_03\Compile\Telematics_12777_1\Telematics_12777_1.a(Com_generated.o64)
 .note.GNU-stack
                0x0000000000000000        0x0 C:\Users\MURTI\AppData\Local\Temp\dSPACE\CfgDesk\AppCache\3\Build\EXP_03\Compile\Telematics_12777_1\Telematics_12777_1.a(Com_Tx_generated.o64)
 .note.GNU-stack
                0x0000000000000000        0x0 C:\Users\MURTI\AppData\Local\Temp\dSPACE\CfgDesk\AppCache\3\Build\EXP_03\Compile\Telematics_12777_1\Telematics_12777_1.a(Com_Rx_generated.o64)
 .note.GNU-stack
                0x0000000000000000        0x0 C:\Users\MURTI\AppData\Local\Temp\dSPACE\CfgDesk\AppCache\3\Build\EXP_03\Compile\Telematics_12777_1\Telematics_12777_1.a(PduR_Cfg_generated.o64)
 .note.GNU-stack
                0x0000000000000000        0x0 C:\Users\MURTI\AppData\Local\Temp\dSPACE\CfgDesk\AppCache\3\Build\EXP_03\Compile\Telematics_12777_1\Telematics_12777_1.a(PduR_generated.o64)
 .note.GNU-stack
                0x0000000000000000        0x0 C:\Users\MURTI\AppData\Local\Temp\dSPACE\CfgDesk\AppCache\3\Build\EXP_03\Compile\Telematics_12777_1\Telematics_12777_1.a(SchM_CanIf.o64)
 .note.GNU-stack
                0x0000000000000000        0x0 C:\Users\MURTI\AppData\Local\Temp\dSPACE\CfgDesk\AppCache\3\Build\EXP_03\Compile\Manipulation_12777_1\Manipulation_12777_1.a(CanManipulation.o64)
 .note.GNU-stack
                0x0000000000000000        0x0 C:\Users\MURTI\AppData\Local\Temp\dSPACE\CfgDesk\AppCache\3\Build\EXP_03\Compile\Manipulation_12777_1\Manipulation_12777_1.a(CanManipulation_Cfg.o64)
 .note.GNU-stack
                0x0000000000000000        0x0 C:\Users\MURTI\AppData\Local\Temp\dSPACE\CfgDesk\AppCache\3\Build\EXP_03\Compile\Manipulation_12777_1\Manipulation_12777_1.a(CAN0_0.o64)
 .note.GNU-stack
                0x0000000000000000        0x0 C:\Users\MURTI\AppData\Local\Temp\dSPACE\CfgDesk\AppCache\3\Build\EXP_03\Compile\Manipulation_12777_1\Manipulation_12777_1.a(ManipulationInterface.o64)
 .note.GNU-stack
                0x0000000000000000        0x0 C:\Users\MURTI\AppData\Local\Temp\dSPACE\CfgDesk\AppCache\3\Build\EXP_03\Compile\Manipulation_12777_1\Manipulation_12777_1.a(ManipulationInit_0.o64)
 .note.GNU-stack
                0x0000000000000000        0x0 C:\Users\MURTI\AppData\Local\Temp\dSPACE\CfgDesk\AppCache\3\Build\EXP_03\Compile\ManipulationHook_21408\ManipulationHook_21408.a(ManipulationHook.o64)
 .note.GNU-stack
                0x0000000000000000        0x0 C:\Program Files\dSPACE RCPHIL 2023-B\Compiler\Linux_4.14_GCC_10.3\target\x86_64-linux-gnu\lib\libc_nonshared.a(elf-init.oS)
 .note.GNU-stack
                0x0000000000000000        0x0 c:/program files/dspace rcphil 2023-b/compiler/linux_4.14_gcc_10.3/target/x86_64-linux-gnu/bin/../lib/gcc/x86_64-linux-gnu/10.3.0/crtendS.o
 .note.gnu.property
                0x0000000000000000       0x20 c:/program files/dspace rcphil 2023-b/compiler/linux_4.14_gcc_10.3/target/x86_64-linux-gnu/bin/../lib/gcc/x86_64-linux-gnu/10.3.0/crtendS.o
 .note.GNU-stack
                0x0000000000000000        0x0 c:/program files/dspace rcphil 2023-b/compiler/linux_4.14_gcc_10.3/target/x86_64-linux-gnu/bin/../../x86_64-linux-gnu/lib/crtn.o

Memory Configuration

Name             Origin             Length             Attributes
*default*        0x0000000000000000 0xffffffffffffffff

Linker script and memory map

LOAD c:/program files/dspace rcphil 2023-b/compiler/linux_4.14_gcc_10.3/target/x86_64-linux-gnu/bin/../../x86_64-linux-gnu/lib/Scrt1.o
LOAD c:/program files/dspace rcphil 2023-b/compiler/linux_4.14_gcc_10.3/target/x86_64-linux-gnu/bin/../../x86_64-linux-gnu/lib/crti.o
LOAD c:/program files/dspace rcphil 2023-b/compiler/linux_4.14_gcc_10.3/target/x86_64-linux-gnu/bin/../lib/gcc/x86_64-linux-gnu/10.3.0/crtbeginS.o
                0x00000000000009ce                DS_TARGET_PLATFORM = 0x9ce
LOAD C:\Program Files\dSPACE RCPHIL 2023-B\Compiler\Linux_4.14_GCC_10.3\target\x86_64-linux-gnu\lib/libpthread.so
LOAD C:\Program Files\dSPACE RCPHIL 2023-B\Compiler\Linux_4.14_GCC_10.3\target\x86_64-linux-gnu\lib/librt.so
LOAD C:\Program Files\dSPACE RCPHIL 2023-B\Compiler\Linux_4.14_GCC_10.3\target\x86_64-linux-gnu\lib/libdl.so
START GROUP
LOAD StateManager_generated.o64
LOAD ScalingFunctions.o64
LOAD Hashmap.o64
LOAD HelperMethods.o64
LOAD mdladapter_mdlfunctions.o64
LOAD mdlCode_ap.o64
LOAD data_in_ap.o64
LOAD data_out_ap.o64
LOAD fm_entry_ap.o64
LOAD fm_exit_ap.o64
LOAD dssimengine_accesspoint.o64
LOAD dssimengine_api.o64
LOAD dssimengine_main.o64
LOAD rtosal_task.o64
LOAD rtosal_taskap.o64
LOAD rtosal_simengineap.o64
LOAD IOCode_Data.o64
LOAD dssimengine_accesspoint_CAN.o64
LOAD IOCode_TestAutomationInit_0.o64
LOAD BusManager_Bus_Configuration_i1_i12777_1.o64
LOAD Bus_Configuration_i1_i12777.o64
LOAD Bus_Configuration_i1_i12777_tx.o64
LOAD Bus_Configuration_i1_i12777_if.o64
LOAD Bus_Configuration_i1_i12777_CAN.o64
LOAD BusRtCode.o64
LOAD ConvertHwTimeToSimTime.o64
LOAD C:\Users\MURTI\AppData\Local\Temp\dSPACE\CfgDesk\AppCache\3\Build\EXP_03\Compile\DriveSystemControl\DriveSystemControl.a
LOAD C:\Users\MURTI\AppData\Local\Temp\dSPACE\CfgDesk\AppCache\3\Build\EXP_03\Compile\Inspection_12777_1\Inspection_12777_1.a
LOAD C:\Users\MURTI\AppData\Local\Temp\dSPACE\CfgDesk\AppCache\3\Build\EXP_03\Compile\BMS_12777_1\BMS_12777_1.a
LOAD C:\Users\MURTI\AppData\Local\Temp\dSPACE\CfgDesk\AppCache\3\Build\EXP_03\Compile\IPC_12777_1\IPC_12777_1.a
LOAD C:\Users\MURTI\AppData\Local\Temp\dSPACE\CfgDesk\AppCache\3\Build\EXP_03\Compile\TCU_12777_1\TCU_12777_1.a
LOAD C:\Users\MURTI\AppData\Local\Temp\dSPACE\CfgDesk\AppCache\3\Build\EXP_03\Compile\Telematics_12777_1\Telematics_12777_1.a
LOAD C:\Users\MURTI\AppData\Local\Temp\dSPACE\CfgDesk\AppCache\3\Build\EXP_03\Compile\Manipulation_12777_1\Manipulation_12777_1.a
LOAD C:\Users\MURTI\AppData\Local\Temp\dSPACE\CfgDesk\AppCache\3\Build\EXP_03\Compile\ManipulationHook_21408\ManipulationHook_21408.a
LOAD C:\Program Files\dSPACE RCPHIL 2023-B\SCALEXIO\lib64/libdscandrv.so
LOAD C:\Program Files\dSPACE RCPHIL 2023-B\SCALEXIO\lib64/libdslindrv.so
LOAD C:\Program Files\dSPACE RCPHIL 2023-B\SCALEXIO\lib64/libdsethernetinterfacemanagementdrv.so
END GROUP
LOAD C:\Program Files\dSPACE RCPHIL 2023-B\SCALEXIO\lib64/libDsRtLib.so
LOAD C:\Program Files\dSPACE RCPHIL 2023-B\Compiler\Linux_4.14_GCC_10.3\target\x86_64-linux-gnu\x86_64-linux-gnu\lib64/libstdc++.so
LOAD C:\Program Files\dSPACE RCPHIL 2023-B\Compiler\Linux_4.14_GCC_10.3\target\x86_64-linux-gnu\lib/libm.so
START GROUP
LOAD C:\Program Files\dSPACE RCPHIL 2023-B\Compiler\Linux_4.14_GCC_10.3\target\x86_64-linux-gnu\lib\libm.so.6
LOAD C:\Program Files\dSPACE RCPHIL 2023-B\Compiler\Linux_4.14_GCC_10.3\target\x86_64-linux-gnu\lib\libmvec.so.1
END GROUP
LOAD C:\Program Files\dSPACE RCPHIL 2023-B\Compiler\Linux_4.14_GCC_10.3\target\x86_64-linux-gnu\x86_64-linux-gnu\lib/libgcc_s.so
START GROUP
LOAD C:\Program Files\dSPACE RCPHIL 2023-B\Compiler\Linux_4.14_GCC_10.3\target\x86_64-linux-gnu\x86_64-linux-gnu\lib\libgcc_s.so.1
LOAD c:/program files/dspace rcphil 2023-b/compiler/linux_4.14_gcc_10.3/target/x86_64-linux-gnu/bin/../lib/gcc/x86_64-linux-gnu/10.3.0\libgcc.a
END GROUP
LOAD c:/program files/dspace rcphil 2023-b/compiler/linux_4.14_gcc_10.3/target/x86_64-linux-gnu/bin/../lib/gcc/x86_64-linux-gnu/10.3.0\libgcc.a
LOAD C:\Program Files\dSPACE RCPHIL 2023-B\Compiler\Linux_4.14_GCC_10.3\target\x86_64-linux-gnu\lib/libc.so
START GROUP
LOAD C:\Program Files\dSPACE RCPHIL 2023-B\Compiler\Linux_4.14_GCC_10.3\target\x86_64-linux-gnu\lib\libc.so.6
LOAD C:\Program Files\dSPACE RCPHIL 2023-B\Compiler\Linux_4.14_GCC_10.3\target\x86_64-linux-gnu\lib\libc_nonshared.a
LOAD C:\Program Files\dSPACE RCPHIL 2023-B\Compiler\Linux_4.14_GCC_10.3\target\x86_64-linux-gnu\lib\ld-linux-x86-64.so.2
END GROUP
LOAD C:\Program Files\dSPACE RCPHIL 2023-B\Compiler\Linux_4.14_GCC_10.3\target\x86_64-linux-gnu\x86_64-linux-gnu\lib/libgcc_s.so
START GROUP
LOAD C:\Program Files\dSPACE RCPHIL 2023-B\Compiler\Linux_4.14_GCC_10.3\target\x86_64-linux-gnu\x86_64-linux-gnu\lib\libgcc_s.so.1
LOAD c:/program files/dspace rcphil 2023-b/compiler/linux_4.14_gcc_10.3/target/x86_64-linux-gnu/bin/../lib/gcc/x86_64-linux-gnu/10.3.0\libgcc.a
END GROUP
LOAD c:/program files/dspace rcphil 2023-b/compiler/linux_4.14_gcc_10.3/target/x86_64-linux-gnu/bin/../lib/gcc/x86_64-linux-gnu/10.3.0\libgcc.a
LOAD c:/program files/dspace rcphil 2023-b/compiler/linux_4.14_gcc_10.3/target/x86_64-linux-gnu/bin/../lib/gcc/x86_64-linux-gnu/10.3.0/crtendS.o
LOAD c:/program files/dspace rcphil 2023-b/compiler/linux_4.14_gcc_10.3/target/x86_64-linux-gnu/bin/../../x86_64-linux-gnu/lib/crtn.o
                [!provide]                        PROVIDE (__executable_start = SEGMENT_START ("text-segment", 0x0))
                0x00000000000002a8                . = (SEGMENT_START ("text-segment", 0x0) + SIZEOF_HEADERS)

.interp         0x00000000000002a8       0x1c
 *(.interp)
 .interp        0x00000000000002a8       0x1c c:/program files/dspace rcphil 2023-b/compiler/linux_4.14_gcc_10.3/target/x86_64-linux-gnu/bin/../../x86_64-linux-gnu/lib/Scrt1.o

.note.gnu.build-id
                0x00000000000002c4       0x24
 *(.note.gnu.build-id)
 .note.gnu.build-id
                0x00000000000002c4       0x24 c:/program files/dspace rcphil 2023-b/compiler/linux_4.14_gcc_10.3/target/x86_64-linux-gnu/bin/../../x86_64-linux-gnu/lib/Scrt1.o

.note.ABI-tag   0x00000000000002e8       0x20
 .note.ABI-tag  0x00000000000002e8       0x20 c:/program files/dspace rcphil 2023-b/compiler/linux_4.14_gcc_10.3/target/x86_64-linux-gnu/bin/../../x86_64-linux-gnu/lib/Scrt1.o

.hash           0x0000000000000308      0x330
 *(.hash)
 .hash          0x0000000000000308      0x330 c:/program files/dspace rcphil 2023-b/compiler/linux_4.14_gcc_10.3/target/x86_64-linux-gnu/bin/../../x86_64-linux-gnu/lib/Scrt1.o

.gnu.hash       0x0000000000000638       0x24
 *(.gnu.hash)
 .gnu.hash      0x0000000000000638       0x24 c:/program files/dspace rcphil 2023-b/compiler/linux_4.14_gcc_10.3/target/x86_64-linux-gnu/bin/../../x86_64-linux-gnu/lib/Scrt1.o

.dynsym         0x0000000000000660      0x9d8
 *(.dynsym)
 .dynsym        0x0000000000000660      0x9d8 c:/program files/dspace rcphil 2023-b/compiler/linux_4.14_gcc_10.3/target/x86_64-linux-gnu/bin/../../x86_64-linux-gnu/lib/Scrt1.o

.dynstr         0x0000000000001038      0xcfe
 *(.dynstr)
 .dynstr        0x0000000000001038      0xcfe c:/program files/dspace rcphil 2023-b/compiler/linux_4.14_gcc_10.3/target/x86_64-linux-gnu/bin/../../x86_64-linux-gnu/lib/Scrt1.o

.gnu.version    0x0000000000001d36       0xd2
 *(.gnu.version)
 .gnu.version   0x0000000000001d36       0xd2 c:/program files/dspace rcphil 2023-b/compiler/linux_4.14_gcc_10.3/target/x86_64-linux-gnu/bin/../../x86_64-linux-gnu/lib/Scrt1.o

.gnu.version_d  0x0000000000001e08        0x0
 *(.gnu.version_d)
 .gnu.version_d
                0x0000000000001e08        0x0 c:/program files/dspace rcphil 2023-b/compiler/linux_4.14_gcc_10.3/target/x86_64-linux-gnu/bin/../../x86_64-linux-gnu/lib/Scrt1.o

.gnu.version_r  0x0000000000001e08       0x80
 *(.gnu.version_r)
 .gnu.version_r
                0x0000000000001e08       0x80 c:/program files/dspace rcphil 2023-b/compiler/linux_4.14_gcc_10.3/target/x86_64-linux-gnu/bin/../../x86_64-linux-gnu/lib/Scrt1.o

.rela.dyn       0x0000000000001e88     0x1f68
 *(.rela.init)
 *(.rela.text .rela.text.* .rela.gnu.linkonce.t.*)
 .rela.text     0x0000000000001e88        0x0 c:/program files/dspace rcphil 2023-b/compiler/linux_4.14_gcc_10.3/target/x86_64-linux-gnu/bin/../../x86_64-linux-gnu/lib/Scrt1.o
 *(.rela.fini)
 *(.rela.rodata .rela.rodata.* .rela.gnu.linkonce.r.*)
 *(.rela.data .rela.data.* .rela.gnu.linkonce.d.*)
 .rela.data.rel.ro
                0x0000000000001e88      0x150 c:/program files/dspace rcphil 2023-b/compiler/linux_4.14_gcc_10.3/target/x86_64-linux-gnu/bin/../../x86_64-linux-gnu/lib/Scrt1.o
 .rela.data.rel.local
                0x0000000000001fd8      0x840 c:/program files/dspace rcphil 2023-b/compiler/linux_4.14_gcc_10.3/target/x86_64-linux-gnu/bin/../../x86_64-linux-gnu/lib/Scrt1.o
 .rela.data.rel.ro._ZTI18DsCApplicationMain
                0x0000000000002818       0x48 c:/program files/dspace rcphil 2023-b/compiler/linux_4.14_gcc_10.3/target/x86_64-linux-gnu/bin/../../x86_64-linux-gnu/lib/Scrt1.o
 .rela.data.rel.ro._ZTV18DsCApplicationMain
                0x0000000000002860       0xd8 c:/program files/dspace rcphil 2023-b/compiler/linux_4.14_gcc_10.3/target/x86_64-linux-gnu/bin/../../x86_64-linux-gnu/lib/Scrt1.o
 .rela.data.rel
                0x0000000000002938      0x7b0 c:/program files/dspace rcphil 2023-b/compiler/linux_4.14_gcc_10.3/target/x86_64-linux-gnu/bin/../../x86_64-linux-gnu/lib/Scrt1.o
 .rela.data.rel.local.DW.ref.__gxx_personality_v0
                0x00000000000030e8       0x18 c:/program files/dspace rcphil 2023-b/compiler/linux_4.14_gcc_10.3/target/x86_64-linux-gnu/bin/../../x86_64-linux-gnu/lib/Scrt1.o
 .rela.data.rel.ro._ZTI24DsCRtosAlPeriodic_Task_1
                0x0000000000003100       0x48 c:/program files/dspace rcphil 2023-b/compiler/linux_4.14_gcc_10.3/target/x86_64-linux-gnu/bin/../../x86_64-linux-gnu/lib/Scrt1.o
 .rela.data.rel.ro._ZTI26DsCRtosAlBus_Configuration
                0x0000000000003148       0x48 c:/program files/dspace rcphil 2023-b/compiler/linux_4.14_gcc_10.3/target/x86_64-linux-gnu/bin/../../x86_64-linux-gnu/lib/Scrt1.o
 .rela.data.rel.ro._ZTI24DsCRtosAlCAN_RX_Task_i1_
                0x0000000000003190       0x48 c:/program files/dspace rcphil 2023-b/compiler/linux_4.14_gcc_10.3/target/x86_64-linux-gnu/bin/../../x86_64-linux-gnu/lib/Scrt1.o
 .rela.data.rel.ro._ZTV24DsCRtosAlPeriodic_Task_1
                0x00000000000031d8       0x78 c:/program files/dspace rcphil 2023-b/compiler/linux_4.14_gcc_10.3/target/x86_64-linux-gnu/bin/../../x86_64-linux-gnu/lib/Scrt1.o
 .rela.data.rel.ro._ZTV26DsCRtosAlBus_Configuration
                0x0000000000003250       0x78 c:/program files/dspace rcphil 2023-b/compiler/linux_4.14_gcc_10.3/target/x86_64-linux-gnu/bin/../../x86_64-linux-gnu/lib/Scrt1.o
 .rela.data.rel.ro._ZTV24DsCRtosAlCAN_RX_Task_i1_
                0x00000000000032c8       0x78 c:/program files/dspace rcphil 2023-b/compiler/linux_4.14_gcc_10.3/target/x86_64-linux-gnu/bin/../../x86_64-linux-gnu/lib/Scrt1.o
 .rela.data.rel.ro.local
                0x0000000000003340       0xc0 c:/program files/dspace rcphil 2023-b/compiler/linux_4.14_gcc_10.3/target/x86_64-linux-gnu/bin/../../x86_64-linux-gnu/lib/Scrt1.o
 *(.rela.tdata .rela.tdata.* .rela.gnu.linkonce.td.*)
 *(.rela.tbss .rela.tbss.* .rela.gnu.linkonce.tb.*)
 *(.rela.ctors)
 .rela.ctors    0x0000000000003400       0x60 c:/program files/dspace rcphil 2023-b/compiler/linux_4.14_gcc_10.3/target/x86_64-linux-gnu/bin/../../x86_64-linux-gnu/lib/Scrt1.o
 *(.rela.dtors)
 *(.rela.got)
 .rela.got      0x0000000000003460      0x978 c:/program files/dspace rcphil 2023-b/compiler/linux_4.14_gcc_10.3/target/x86_64-linux-gnu/bin/../../x86_64-linux-gnu/lib/Scrt1.o
 *(.rela.bss .rela.bss.* .rela.gnu.linkonce.b.*)
 .rela.bss      0x0000000000003dd8        0x0 c:/program files/dspace rcphil 2023-b/compiler/linux_4.14_gcc_10.3/target/x86_64-linux-gnu/bin/../../x86_64-linux-gnu/lib/Scrt1.o
 *(.rela.ldata .rela.ldata.* .rela.gnu.linkonce.l.*)
 *(.rela.lbss .rela.lbss.* .rela.gnu.linkonce.lb.*)
 *(.rela.lrodata .rela.lrodata.* .rela.gnu.linkonce.lr.*)
 *(.rela.ifunc)
 .rela.ifunc    0x0000000000003dd8        0x0 c:/program files/dspace rcphil 2023-b/compiler/linux_4.14_gcc_10.3/target/x86_64-linux-gnu/bin/../../x86_64-linux-gnu/lib/Scrt1.o
 .rela.init_array
                0x0000000000003dd8       0x18 c:/program files/dspace rcphil 2023-b/compiler/linux_4.14_gcc_10.3/target/x86_64-linux-gnu/bin/../../x86_64-linux-gnu/lib/Scrt1.o
 .rela.eh_frame
                0x0000000000003df0        0x0 c:/program files/dspace rcphil 2023-b/compiler/linux_4.14_gcc_10.3/target/x86_64-linux-gnu/bin/../../x86_64-linux-gnu/lib/Scrt1.o

.rela.plt       0x0000000000003df0        0x0
 *(.rela.plt)
 .rela.plt      0x0000000000003df0        0x0 c:/program files/dspace rcphil 2023-b/compiler/linux_4.14_gcc_10.3/target/x86_64-linux-gnu/bin/../../x86_64-linux-gnu/lib/Scrt1.o
 *(.rela.iplt)
                0x0000000000004000                . = ALIGN (CONSTANT (MAXPAGESIZE))

.init           0x0000000000004000       0x17
 *(SORT_NONE(.init))
 .init          0x0000000000004000       0x12 c:/program files/dspace rcphil 2023-b/compiler/linux_4.14_gcc_10.3/target/x86_64-linux-gnu/bin/../../x86_64-linux-gnu/lib/crti.o
                0x0000000000004000                _init
 .init          0x0000000000004012        0x5 c:/program files/dspace rcphil 2023-b/compiler/linux_4.14_gcc_10.3/target/x86_64-linux-gnu/bin/../../x86_64-linux-gnu/lib/crtn.o

.plt            0x0000000000004020       0x10
 *(.plt)
 .plt           0x0000000000004020       0x10 c:/program files/dspace rcphil 2023-b/compiler/linux_4.14_gcc_10.3/target/x86_64-linux-gnu/bin/../../x86_64-linux-gnu/lib/Scrt1.o
 *(.iplt)

.plt.got        0x0000000000004030        0x8
 *(.plt.got)
 .plt.got       0x0000000000004030        0x8 c:/program files/dspace rcphil 2023-b/compiler/linux_4.14_gcc_10.3/target/x86_64-linux-gnu/bin/../../x86_64-linux-gnu/lib/Scrt1.o
                0x0000000000004030                __cxa_finalize@@GLIBC_2.2.5

.plt.sec
 *(.plt.sec)

.text           0x0000000000004040    0x2d4e1
 *(.text.unlikely .text.*_unlikely .text.unlikely.*)
 .text.unlikely
                0x0000000000004040       0x1a dssimengine_main.o64
 .text.unlikely
                0x000000000000405a       0x4e rtosal_task.o64
 .text.unlikely
                0x00000000000040a8        0x7 C:\Users\MURTI\AppData\Local\Temp\dSPACE\CfgDesk\AppCache\3\Build\EXP_03\Compile\BMS_12777_1\BMS_12777_1.a(Rte_generated.o64)
 .text.unlikely
                0x00000000000040af        0x6 C:\Users\MURTI\AppData\Local\Temp\dSPACE\CfgDesk\AppCache\3\Build\EXP_03\Compile\BMS_12777_1\BMS_12777_1.a(Com_Tx_generated.o64)
 .text.unlikely
                0x00000000000040b5        0x6 C:\Users\MURTI\AppData\Local\Temp\dSPACE\CfgDesk\AppCache\3\Build\EXP_03\Compile\BMS_12777_1\BMS_12777_1.a(Com_Rx_generated.o64)
 .text.unlikely
                0x00000000000040bb        0x6 C:\Users\MURTI\AppData\Local\Temp\dSPACE\CfgDesk\AppCache\3\Build\EXP_03\Compile\IPC_12777_1\IPC_12777_1.a(Com_Rx_generated.o64)
 .text.unlikely
                0x00000000000040c1        0x7 C:\Users\MURTI\AppData\Local\Temp\dSPACE\CfgDesk\AppCache\3\Build\EXP_03\Compile\TCU_12777_1\TCU_12777_1.a(Rte_generated.o64)
 .text.unlikely
                0x00000000000040c8        0x6 C:\Users\MURTI\AppData\Local\Temp\dSPACE\CfgDesk\AppCache\3\Build\EXP_03\Compile\TCU_12777_1\TCU_12777_1.a(Com_Tx_generated.o64)
 .text.unlikely
                0x00000000000040ce        0x6 C:\Users\MURTI\AppData\Local\Temp\dSPACE\CfgDesk\AppCache\3\Build\EXP_03\Compile\Telematics_12777_1\Telematics_12777_1.a(Com_Rx_generated.o64)
 *(.text.exit .text.exit.*)
 *(.text.startup .text.startup.*)
 *fill*         0x00000000000040d4        0xc 
 .text.startup  0x00000000000040e0       0x29 dssimengine_main.o64
                0x00000000000040e0                _Z32__registerApplDsCApplicationMainv
 *fill*         0x0000000000004109        0x7 
 .text.startup  0x0000000000004110       0x12 rtosal_simengineap.o64
                0x0000000000004110                _Z21__registerRTTMPConfigv
 *fill*         0x0000000000004122        0xe 
 .text.startup  0x0000000000004130       0x14 IOCode_Data.o64
                0x0000000000004130                _Z31__registerResourceg_ResourceMapv
 *(.text.hot .text.hot.*)
 *(SORT_BY_NAME(.text.sorted.*))
 *(.text .stub .text.* .gnu.linkonce.t.*)
 *fill*         0x0000000000004144        0xc 
 .text          0x0000000000004150       0x2b c:/program files/dspace rcphil 2023-b/compiler/linux_4.14_gcc_10.3/target/x86_64-linux-gnu/bin/../../x86_64-linux-gnu/lib/Scrt1.o
                0x0000000000004150                _start
 .text          0x000000000000417b        0x0 c:/program files/dspace rcphil 2023-b/compiler/linux_4.14_gcc_10.3/target/x86_64-linux-gnu/bin/../../x86_64-linux-gnu/lib/crti.o
 *fill*         0x000000000000417b        0x5 
 .text          0x0000000000004180      0x109 c:/program files/dspace rcphil 2023-b/compiler/linux_4.14_gcc_10.3/target/x86_64-linux-gnu/bin/../lib/gcc/x86_64-linux-gnu/10.3.0/crtbeginS.o
 *fill*         0x0000000000004289        0x7 
 .text          0x0000000000004290      0x831 StateManager_generated.o64
                0x00000000000043a0                StateManager_RegisterCallback_NoTransitions
                0x0000000000004470                StateManager_RegisterCallback_MultipleTransitions
                0x0000000000004760                StateManager_RegisterCallback_SingleTransition
                0x0000000000004790                StateManager_UnregisterCallback_MultipleTransitions
                0x0000000000004890                StateManager_UnregisterCallback_SingleTransition
                0x00000000000048c0                StateManager_UnregisterCallback_NoTransitions
                0x0000000000004950                StateManager_GetState
                0x0000000000004960                StateManager_GetState_AsUInt8Ptr
                0x0000000000004970                StateManager_SetState
                0x0000000000004990                StateManager_SetCounterStateIndex
                0x00000000000049a0                StateManager_GetCounterState
                0x00000000000049c0                StateManager_SetCounterState
                0x00000000000049f0                StateManager_DecrementCounterState
                0x0000000000004a20                StateManager_ResetCounterState
                0x0000000000004a60                StateManager_SetState_Mutex
                0x0000000000004ab0                StateManager_StateManagerInit
 *fill*         0x0000000000004ac1        0xf 
 .text          0x0000000000004ad0      0x6a4 ScalingFunctions.o64
                0x0000000000004ad0                EXP_03_Scale_Linear_From_boolean
                0x0000000000004b10                EXP_03_Scale_Linear_From_boolean_noround
                0x0000000000004b30                EXP_03_roundSource_From_boolean
                0x0000000000004b50                EXP_03_Scale_Linear_From_sint8
                0x0000000000004b90                EXP_03_Scale_Linear_From_sint8_noround
                0x0000000000004bb0                EXP_03_roundSource_From_sint8
                0x0000000000004be0                EXP_03_Scale_Linear_From_uint8
                0x0000000000004c20                EXP_03_Scale_Linear_From_uint8_noround
                0x0000000000004c40                EXP_03_roundSource_From_uint8
                0x0000000000004c60                EXP_03_Scale_Linear_From_sint16
                0x0000000000004ca0                EXP_03_Scale_Linear_From_sint16_noround
                0x0000000000004cc0                EXP_03_roundSource_From_sint16
                0x0000000000004cf0                EXP_03_Scale_Linear_From_uint16
                0x0000000000004d30                EXP_03_Scale_Linear_From_uint16_noround
                0x0000000000004d50                EXP_03_roundSource_From_uint16
                0x0000000000004d70                EXP_03_Scale_Linear_From_sint32
                0x0000000000004db0                EXP_03_Scale_Linear_From_sint32_noround
                0x0000000000004dd0                EXP_03_roundSource_From_sint32
                0x0000000000004e00                EXP_03_Scale_Linear_From_uint32
                0x0000000000004e40                EXP_03_Scale_Linear_From_uint32_noround
                0x0000000000004e60                EXP_03_roundSource_From_uint32
                0x0000000000004e80                EXP_03_Scale_Linear_From_sint64
                0x0000000000004ec0                EXP_03_Scale_Linear_From_sint64_noround
                0x0000000000004ee0                EXP_03_roundSource_From_sint64
                0x0000000000004f10                EXP_03_Scale_Linear_From_uint64
                0x0000000000004f70                EXP_03_Scale_Linear_From_uint64_noround
                0x0000000000004fb0                EXP_03_roundSource_From_uint64
                0x0000000000004ff0                EXP_03_Scale_Linear_From_float32
                0x0000000000005030                EXP_03_Scale_Linear_From_float32_noround
                0x0000000000005050                EXP_03_roundSource_From_float32
                0x0000000000005080                EXP_03_Scale_Linear_From_float64
                0x00000000000050b0                EXP_03_Scale_Linear_From_float64_noround
                0x00000000000050c0                EXP_03_roundSource_From_float64
                0x00000000000050f0                EXP_03_ClampSigned
                0x0000000000005110                EXP_03_ClampUnsigned
                0x0000000000005130                EXP_03_ClampFloat
                0x0000000000005140                EXP_03_ClampSignedToUnsigned
                0x0000000000005160                EXP_03_ClampUnsignedToSigned
 *fill*         0x0000000000005174        0xc 
 .text          0x0000000000005180      0x391 Hashmap.o64
                0x0000000000005180                EXP_03_HashmapPut
                0x0000000000005340                EXP_03_HashmapGet
                0x0000000000005400                EXP_03_HashmapRemove
                0x00000000000054c0                EXP_03_HashmapFree
 *fill*         0x0000000000005511        0xf 
 .text          0x0000000000005520      0x45b HelperMethods.o64
                0x0000000000005520                EXP_03_ReadFromByteBE
                0x0000000000005570                EXP_03_WriteToByteBE
                0x00000000000055d0                EXP_03_GetUInt64FromBytesBigEndian
                0x0000000000005690                EXP_03_CopyBits
                0x00000000000057b0                EXP_03_CompareBits
                0x00000000000058f0                EXP_03_AllocateMemoryDataPtr
                0x0000000000005920                EXP_03_ReleaseMemoryDataPtr
                0x0000000000005940                EXP_03_CalculateOffset
 *fill*         0x000000000000597b        0x5 
 .text          0x0000000000005980       0x48 mdladapter_mdlfunctions.o64
                0x0000000000005980                DriveSystemControl_APTerminateSimulation
                0x0000000000005990                DriveSystemControl_APLastApplStateStopped
                0x00000000000059b0                DriveSystemControl_APStopSimulation
                0x00000000000059c0                DriveSystemControl_APPrintMessage
 .text          0x00000000000059c8        0x0 mdlCode_ap.o64
 *fill*         0x00000000000059c8        0x8 
 .text          0x00000000000059d0     0x2231 data_in_ap.o64
                0x00000000000059d0                ap_read_DriveSystemControl_DataInport1_P1
                0x0000000000006a30                ap_read_DriveSystemControl_DataInport1_P1_S1
                0x0000000000006a40                ap_read_DriveSystemControl_DataInport1_P1_S2
                0x0000000000006a50                ap_read_DriveSystemControl_DataInport1_P1_S3
                0x0000000000006a60                ap_read_DriveSystemControl_DataInport1_P1_S4
                0x0000000000006a70                ap_read_DriveSystemControl_DataInport1_P1_S5
                0x0000000000006a80                ap_read_DriveSystemControl_DataInport1_P1_S6
                0x0000000000006a90                ap_read_DriveSystemControl_DataInport1_P1_S7
                0x0000000000006aa0                ap_read_DriveSystemControl_DataInport1_P1_S8
                0x0000000000006ab0                ap_read_DriveSystemControl_DataInport1_P1_S9
                0x0000000000006ac0                ap_read_DriveSystemControl_DataInport1_P1_S10
                0x0000000000006ad0                ap_read_DriveSystemControl_DataInport1_P1_S11
                0x0000000000006ae0                ap_read_DriveSystemControl_DataInport1_P1_S12
                0x0000000000006af0                ap_read_DriveSystemControl_DataInport1_P1_S13
                0x0000000000006b00                ap_read_DriveSystemControl_DataInport1_P1_S14
                0x0000000000006b10                ap_read_DriveSystemControl_DataInport1_P1_S15
                0x0000000000006b20                ap_read_DriveSystemControl_DataInport1_P1_S16
                0x0000000000006b30                ap_read_DriveSystemControl_DataInport1_P1_S17
                0x0000000000006b40                ap_read_DriveSystemControl_DataInport1_P1_S18
                0x0000000000006b50                ap_read_DriveSystemControl_DataInport1_P1_S19
                0x0000000000006b60                ap_read_DriveSystemControl_DataInport1_P1_S20
                0x0000000000006b70                ap_read_DriveSystemControl_DataInport1_P1_S21
                0x0000000000006b80                ap_read_DriveSystemControl_DataInport1_P1_S22
                0x0000000000006b90                ap_read_DriveSystemControl_DataInport1_P1_S23
                0x0000000000006ba0                ap_read_DriveSystemControl_DataInport1_P1_S24
                0x0000000000006bb0                ap_read_DriveSystemControl_DataInport1_P1_S25
                0x0000000000006bc0                ap_read_DriveSystemControl_DataInport1_P1_S26
                0x0000000000006bd0                ap_read_DriveSystemControl_DataInport1_P1_S27
                0x0000000000006be0                ap_read_DriveSystemControl_DataInport1_P1_S28
                0x0000000000006bf0                ap_read_DriveSystemControl_DataInport1_P1_S29
                0x0000000000006c00                ap_read_DriveSystemControl_DataInport1_P1_S30
                0x0000000000006c10                ap_read_DriveSystemControl_DataInport1_P1_S31
                0x0000000000006c20                ap_read_DriveSystemControl_DataInport1_P1_S32
                0x0000000000006c30                ap_read_DriveSystemControl_DataInport1_P1_S33
                0x0000000000006c40                ap_read_DriveSystemControl_DataInport1_P1_S34
                0x0000000000006c50                ap_read_DriveSystemControl_DataInport1_P1_S35
                0x0000000000006c60                ap_read_DriveSystemControl_DataInport1_P1_S36
                0x0000000000006c70                ap_read_DriveSystemControl_DataInport1_P1_S37
                0x0000000000006c80                ap_read_DriveSystemControl_DataInport1_P1_S38
                0x0000000000006c90                ap_read_DriveSystemControl_DataInport1_P1_S39
                0x0000000000006ca0                ap_read_DriveSystemControl_DataInport1_P1_S40
                0x0000000000006cb0                ap_read_DriveSystemControl_DataInport1_P1_S41
                0x0000000000006cc0                ap_read_DriveSystemControl_DataInport1_P1_S42
                0x0000000000006cd0                ap_read_DriveSystemControl_DataInport1_P1_S43
                0x0000000000006ce0                ap_read_DriveSystemControl_DataInport1_P1_S44
                0x0000000000006cf0                ap_read_DriveSystemControl_DataInport1_P1_S45
                0x0000000000006d00                ap_read_DriveSystemControl_DataInport1_P1_S46
                0x0000000000006d10                ap_read_DriveSystemControl_DataInport1_P1_S47
                0x0000000000006d20                ap_read_DriveSystemControl_DataInport1_P1_S48
                0x0000000000006d30                ap_read_DriveSystemControl_DataInport1_P1_S49
                0x0000000000006d40                ap_read_DriveSystemControl_DataInport1_P1_S50
                0x0000000000006d50                ap_read_DriveSystemControl_DataInport1_P1_S51
                0x0000000000006d60                ap_read_DriveSystemControl_DataInport1_P1_S52
                0x0000000000006d70                ap_read_DriveSystemControl_DataInport1_P1_S53
                0x0000000000006d80                ap_read_DriveSystemControl_DataInport1_P1_S54
                0x0000000000006d90                ap_read_DriveSystemControl_DataInport1_P1_S55
                0x0000000000006da0                ap_read_DriveSystemControl_DataInport1_P1_S56
                0x0000000000006db0                ap_read_DriveSystemControl_DataInport1_P1_S57
                0x0000000000006dc0                ap_read_DriveSystemControl_DataInport1_P1_S58
                0x0000000000006dd0                ap_read_DriveSystemControl_DataInport1_P1_S59
                0x0000000000006de0                ap_read_DriveSystemControl_DataInport1_P1_S60
                0x0000000000006df0                ap_read_DriveSystemControl_DataInport1_P1_S61
                0x0000000000006e00                ap_read_DriveSystemControl_DataInport1_P1_S62
                0x0000000000006e10                ap_read_DriveSystemControl_DataInport1_P1_S63
                0x0000000000006e20                ap_read_DriveSystemControl_DataInport1_P1_S64
                0x0000000000006e30                ap_read_DriveSystemControl_DataInport1_P1_S65
                0x0000000000006e40                ap_read_DriveSystemControl_DataInport1_P1_S66
                0x0000000000006e50                ap_read_DriveSystemControl_DataInport1_P1_S67
                0x0000000000006e60                ap_read_DriveSystemControl_DataInport1_P1_S68
                0x0000000000006e70                ap_read_DriveSystemControl_DataInport1_P1_S69
                0x0000000000006e80                ap_read_DriveSystemControl_DataInport1_P1_S70
                0x0000000000006e90                ap_read_DriveSystemControl_DataInport1_P1_S71
                0x0000000000006ea0                ap_read_DriveSystemControl_DataInport1_P1_S72
                0x0000000000006eb0                ap_read_DriveSystemControl_DataInport1_P1_S73
                0x0000000000006ec0                ap_read_DriveSystemControl_DataInport1_P1_S74
                0x0000000000006ed0                ap_read_DriveSystemControl_DataInport1_P1_S75
                0x0000000000006ee0                ap_read_DriveSystemControl_DataInport1_P1_S76
                0x0000000000006ef0                ap_read_DriveSystemControl_DataInport1_P1_S77
                0x0000000000006f00                ap_read_DriveSystemControl_DataInport1_P1_S78
                0x0000000000006f10                ap_read_DriveSystemControl_DataInport1_P1_S79
                0x0000000000006f20                ap_read_DriveSystemControl_DataInport1_P1_S80
                0x0000000000006f30                ap_read_DriveSystemControl_DataInport1_P1_S81
                0x0000000000006f40                ap_read_DriveSystemControl_DataInport1_P1_S82
                0x0000000000006f50                ap_read_DriveSystemControl_DataInport1_P1_S83
                0x0000000000006f60                ap_read_DriveSystemControl_DataInport1_P1_S84
                0x0000000000006f70                ap_read_DriveSystemControl_DataInport1_P1_S85
                0x0000000000006f80                ap_read_DriveSystemControl_DataInport1_P1_S86
                0x0000000000006f90                ap_read_DriveSystemControl_DataInport1_P1_S87
                0x0000000000006fa0                ap_read_DriveSystemControl_DataInport1_P1_S88
                0x0000000000006fb0                ap_read_DriveSystemControl_DataInport1_P1_S89
                0x0000000000006fc0                ap_read_DriveSystemControl_DataInport1_P1_S90
                0x0000000000006fd0                ap_read_DriveSystemControl_DataInport1_P1_S91
                0x0000000000006fe0                ap_read_DriveSystemControl_DataInport1_P1_S92
                0x0000000000006ff0                ap_read_DriveSystemControl_DataInport1_P1_S93
                0x0000000000007000                ap_read_DriveSystemControl_DataInport1_P1_S94
                0x0000000000007010                ap_read_DriveSystemControl_DataInport1_P1_S95
                0x0000000000007020                ap_read_DriveSystemControl_DataInport1_P1_S96
                0x0000000000007030                ap_read_DriveSystemControl_DataInport1_P1_S97
                0x0000000000007040                ap_read_DriveSystemControl_DataInport1_P1_S98
                0x0000000000007050                ap_read_DriveSystemControl_DataInport1_P1_S99
                0x0000000000007060                ap_read_DriveSystemControl_DataInport1_P1_S100
                0x0000000000007070                ap_read_DriveSystemControl_DataInport1_P1_S101
                0x0000000000007080                ap_read_DriveSystemControl_DataInport1_P1_S102
                0x0000000000007090                ap_read_DriveSystemControl_DataInport1_P1_S103
                0x00000000000070a0                ap_read_DriveSystemControl_DataInport1_P1_S104
                0x00000000000070b0                ap_read_DriveSystemControl_DataInport1_P1_S105
                0x00000000000070c0                ap_read_DriveSystemControl_DataInport1_P1_S106
                0x00000000000070d0                ap_read_DriveSystemControl_DataInport1_P1_S107
                0x00000000000070e0                ap_read_DriveSystemControl_DataInport1_P1_S108
                0x00000000000070f0                ap_read_DriveSystemControl_DataInport1_P1_S109
                0x0000000000007100                ap_read_DriveSystemControl_DataInport1_P1_S110
                0x0000000000007110                ap_read_DriveSystemControl_DataInport1_P1_S111
                0x0000000000007120                ap_read_DriveSystemControl_DataInport1_P1_S112
                0x0000000000007130                ap_read_DriveSystemControl_DataInport1_P1_S113
                0x0000000000007140                ap_read_DriveSystemControl_DataInport1_P1_S114
                0x0000000000007150                ap_read_DriveSystemControl_DataInport1_P1_S115
                0x0000000000007160                ap_read_DriveSystemControl_DataInport1_P1_S116
                0x0000000000007170                ap_read_DriveSystemControl_DataInport1_P1_S117
                0x0000000000007180                ap_read_DriveSystemControl_DataInport1_P1_S118
                0x0000000000007190                ap_read_DriveSystemControl_DataInport1_P1_S119
                0x00000000000071a0                ap_read_DriveSystemControl_DataInport1_P1_S120
                0x00000000000071b0                ap_read_DriveSystemControl_DataInport1_P1_S121
                0x00000000000071c0                ap_read_DriveSystemControl_DataInport1_P1_S122
                0x00000000000071d0                ap_read_DriveSystemControl_DataInport1_P1_S123
                0x00000000000071e0                ap_read_DriveSystemControl_DataInport1_P1_S124
                0x00000000000071f0                ap_read_DriveSystemControl_DataInport1_P1_S125
                0x0000000000007200                ap_read_DriveSystemControl_DataInport1_P1_S126
                0x0000000000007210                ap_read_DriveSystemControl_DataInport1_P1_S127
                0x0000000000007220                ap_read_DriveSystemControl_DataInport1_P1_S128
                0x0000000000007230                ap_read_DriveSystemControl_DataInport1_P1_S129
                0x0000000000007240                ap_read_DriveSystemControl_DataInport1_P1_S130
                0x0000000000007250                ap_read_DriveSystemControl_DataInport1_P1_S131
                0x0000000000007260                ap_read_DriveSystemControl_DataInport1_P1_S132
                0x0000000000007270                ap_read_DriveSystemControl_DataInport1_P1_S133
                0x0000000000007280                ap_read_DriveSystemControl_DataInport1_P1_S134
                0x0000000000007290                ap_read_DriveSystemControl_DataInport1_P1_S135
                0x00000000000072a0                ap_read_DriveSystemControl_DataInport1_P1_S136
                0x00000000000072b0                ap_read_DriveSystemControl_DataInport1_P1_S137
                0x00000000000072c0                ap_read_DriveSystemControl_DataInport1_P1_S138
                0x00000000000072d0                ap_read_DriveSystemControl_DataInport1_P1_S139
                0x00000000000072e0                ap_read_DriveSystemControl_DataInport1_P1_S140
                0x00000000000072f0                ap_read_DriveSystemControl_DataInport1_P1_S141
                0x0000000000007300                ap_read_DriveSystemControl_DataInport1_P1_S142
                0x0000000000007310                ap_read_DriveSystemControl_DataInport1_P1_S143
                0x0000000000007320                ap_read_DriveSystemControl_DataInport1_P1_S144
                0x0000000000007330                ap_read_DriveSystemControl_DataInport1_P1_S145
                0x0000000000007340                ap_read_DriveSystemControl_DataInport1_P1_S146
                0x0000000000007350                ap_read_DriveSystemControl_DataInport1_P1_S147
                0x0000000000007360                ap_read_DriveSystemControl_DataInport1_P1_S148
                0x0000000000007370                ap_read_DriveSystemControl_DataInport1_P1_S149
                0x0000000000007380                ap_read_DriveSystemControl_DataInport1_P1_S150
                0x0000000000007390                ap_read_DriveSystemControl_DataInport1_P1_S151
                0x00000000000073a0                ap_read_DriveSystemControl_DataInport1_P1_S152
                0x00000000000073b0                ap_read_DriveSystemControl_DataInport1_P1_S153
                0x00000000000073c0                ap_read_DriveSystemControl_DataInport1_P1_S154
                0x00000000000073d0                ap_read_DriveSystemControl_DataInport1_P1_S155
                0x00000000000073e0                ap_read_DriveSystemControl_DataInport1_P1_S156
                0x00000000000073f0                ap_read_DriveSystemControl_DataInport1_P1_S157
                0x0000000000007400                ap_read_DriveSystemControl_DataInport1_P1_S158
                0x0000000000007410                ap_read_DriveSystemControl_DataInport1_P1_S159
                0x0000000000007420                ap_read_DriveSystemControl_DataInport1_P1_S160
                0x0000000000007430                ap_read_DriveSystemControl_DataInport1_P1_S161
                0x0000000000007440                ap_read_DriveSystemControl_DataInport1_P1_S162
                0x0000000000007450                ap_read_DriveSystemControl_DataInport1_P1_S163
                0x0000000000007460                ap_read_DriveSystemControl_DataInport1_P1_S164
                0x0000000000007470                ap_read_DriveSystemControl_DataInport1_P1_S165
                0x0000000000007480                ap_read_DriveSystemControl_DataInport1_P1_S166
                0x0000000000007490                ap_read_DriveSystemControl_DataInport1_P1_S167
                0x00000000000074a0                ap_read_DriveSystemControl_DataInport1_P1_S168
                0x00000000000074b0                ap_read_DriveSystemControl_DataInport1_P1_S169
                0x00000000000074c0                ap_read_DriveSystemControl_DataInport1_P1_S170
                0x00000000000074d0                ap_read_DriveSystemControl_DataInport1_P1_S171
                0x00000000000074e0                ap_read_DriveSystemControl_DataInport1_P1_S172
                0x00000000000074f0                ap_read_DriveSystemControl_DataInport1_P1_S173
                0x0000000000007500                ap_read_DriveSystemControl_DataInport1_P1_S174
                0x0000000000007510                ap_read_DriveSystemControl_DataInport1_P1_S175
                0x0000000000007520                ap_read_DriveSystemControl_DataInport1_P1_S176
                0x0000000000007530                ap_read_DriveSystemControl_DataInport1_P1_S177
                0x0000000000007540                ap_read_DriveSystemControl_DataInport1_P1_S178
                0x0000000000007550                ap_read_DriveSystemControl_DataInport1_P1_S179
                0x0000000000007560                ap_read_DriveSystemControl_DataInport1_P1_S180
                0x0000000000007570                ap_read_DriveSystemControl_DataInport1_P1_S181
                0x0000000000007580                ap_read_DriveSystemControl_DataInport1_P1_S182
                0x0000000000007590                ap_read_DriveSystemControl_DataInport1_P1_S183
                0x00000000000075a0                ap_read_DriveSystemControl_DataInport1_P1_S184
                0x00000000000075b0                ap_read_DriveSystemControl_DataInport1_P1_S185
                0x00000000000075c0                ap_read_DriveSystemControl_DataInport1_P1_S186
                0x00000000000075d0                ap_read_DriveSystemControl_DataInport1_P1_S187
                0x00000000000075e0                ap_read_DriveSystemControl_DataInport1_P1_S188
                0x00000000000075f0                ap_read_DriveSystemControl_DataInport1_P1_S189
                0x0000000000007600                ap_read_DriveSystemControl_DataInport1_P1_S190
                0x0000000000007610                ap_read_DriveSystemControl_DataInport1_P1_S191
                0x0000000000007620                ap_read_DriveSystemControl_DataInport1_P1_S192
                0x0000000000007630                ap_read_DriveSystemControl_DataInport1_P1_S193
                0x0000000000007640                ap_read_DriveSystemControl_DataInport1_P1_S194
                0x0000000000007650                ap_read_DriveSystemControl_DataInport1_P1_S195
                0x0000000000007660                ap_read_DriveSystemControl_DataInport1_P1_S196
                0x0000000000007670                ap_read_DriveSystemControl_DataInport1_P1_S197
                0x0000000000007680                ap_read_DriveSystemControl_DataInport1_P1_S198
                0x0000000000007690                ap_read_DriveSystemControl_DataInport1_P1_S199
                0x00000000000076a0                ap_read_DriveSystemControl_DataInport1_P1_S200
                0x00000000000076b0                ap_read_DriveSystemControl_DataInport1_P1_S201
                0x00000000000076c0                ap_read_DriveSystemControl_DataInport1_P1_S202
                0x00000000000076d0                ap_read_DriveSystemControl_DataInport1_P1_S203
                0x00000000000076e0                ap_read_DriveSystemControl_DataInport1_P1_S204
                0x00000000000076f0                ap_read_DriveSystemControl_DataInport1_P1_S205
                0x0000000000007700                ap_read_DriveSystemControl_DataInport1_P1_S206
                0x0000000000007710                ap_read_DriveSystemControl_DataInport1_P1_S207
                0x0000000000007720                ap_read_DriveSystemControl_DataInport1_P1_S208
                0x0000000000007730                ap_read_DriveSystemControl_DataInport1_P1_S209
                0x0000000000007740                ap_read_DriveSystemControl_DataInport1_P1_S210
                0x0000000000007750                ap_read_DriveSystemControl_DataInport1_P1_S211
                0x0000000000007760                ap_read_DriveSystemControl_DataInport1_P1_S212
                0x0000000000007770                ap_read_DriveSystemControl_DataInport1_P1_S213
                0x0000000000007780                ap_read_DriveSystemControl_DataInport1_P1_S214
                0x0000000000007790                ap_read_DriveSystemControl_DataInport1_P1_S215
                0x00000000000077a0                ap_read_DriveSystemControl_DataInport1_P1_S216
                0x00000000000077b0                ap_read_DriveSystemControl_DataInport1_P1_S217
                0x00000000000077c0                ap_read_DriveSystemControl_DataInport1_P1_S218
                0x00000000000077d0                ap_read_DriveSystemControl_DataInport1_P1_S219
                0x00000000000077e0                ap_read_DriveSystemControl_DataInport1_P1_S220
                0x00000000000077f0                ap_read_DriveSystemControl_DataInport1_P1_S221
                0x0000000000007800                ap_read_DriveSystemControl_DataInport1_P1_S222
                0x0000000000007810                ap_read_DriveSystemControl_DataInport1_P1_S223
                0x0000000000007820                ap_read_DriveSystemControl_DataInport1_P1_S224
                0x0000000000007830                ap_read_DriveSystemControl_DataInport1_P1_S225
                0x0000000000007840                ap_read_DriveSystemControl_DataInport1_P1_S226
                0x0000000000007850                ap_read_DriveSystemControl_DataInport1_P1_S227
                0x0000000000007860                ap_read_DriveSystemControl_DataInport1_P1_S228
                0x0000000000007870                ap_read_DriveSystemControl_DataInport1_P1_S229
                0x0000000000007880                ap_read_DriveSystemControl_DataInport1_P1_S230
                0x0000000000007890                ap_read_DriveSystemControl_DataInport1_P1_S231
                0x00000000000078a0                ap_read_DriveSystemControl_DataInport1_P1_S232
                0x00000000000078b0                ap_read_DriveSystemControl_DataInport1_P1_S233
                0x00000000000078c0                ap_read_DriveSystemControl_DataInport1_P1_S234
                0x00000000000078d0                ap_read_DriveSystemControl_DataInport1_P1_S235
                0x00000000000078e0                ap_read_DriveSystemControl_DataInport1_P1_S236
                0x00000000000078f0                ap_read_DriveSystemControl_DataInport1_P1_S237
                0x0000000000007900                ap_read_DriveSystemControl_DataInport1_P1_S238
                0x0000000000007910                ap_read_DriveSystemControl_DataInport1_P1_S239
                0x0000000000007920                ap_read_DriveSystemControl_DataInport1_P1_S240
                0x0000000000007930                ap_read_DriveSystemControl_DataInport1_P1_S241
                0x0000000000007940                ap_read_DriveSystemControl_DataInport1_P1_S242
                0x0000000000007950                ap_read_DriveSystemControl_DataInport1_P1_S243
                0x0000000000007960                ap_read_DriveSystemControl_DataInport1_P1_S244
                0x0000000000007970                ap_read_DriveSystemControl_DataInport1_P1_S245
                0x0000000000007980                ap_read_DriveSystemControl_DataInport1_P1_S246
                0x0000000000007990                ap_read_DriveSystemControl_DataInport1_P1_S247
                0x00000000000079a0                ap_read_DriveSystemControl_DataInport1_P1_S248
                0x00000000000079b0                ap_read_DriveSystemControl_DataInport1_P1_S249
                0x00000000000079c0                ap_read_DriveSystemControl_DataInport1_P1_S250
                0x00000000000079d0                ap_read_DriveSystemControl_DataInport1_P1_S251
                0x00000000000079e0                ap_read_DriveSystemControl_DataInport1_P1_S252
                0x00000000000079f0                ap_read_DriveSystemControl_DataInport1_P1_S253
                0x0000000000007a00                ap_read_DriveSystemControl_DataInport1_P1_S254
                0x0000000000007a10                ap_read_DriveSystemControl_DataInport1_P1_S255
                0x0000000000007a20                ap_read_DriveSystemControl_DataInport1_P1_S256
                0x0000000000007a30                ap_read_DriveSystemControl_DataInport1_P1_S257
                0x0000000000007a40                ap_read_DriveSystemControl_DataInport1_P1_S258
                0x0000000000007a50                ap_read_DriveSystemControl_DataInport1_P1_S259
                0x0000000000007a60                ap_read_DriveSystemControl_DataInport1_P1_S260
                0x0000000000007a70                ap_read_DriveSystemControl_DataInport1_P1_S261
                0x0000000000007a80                ap_read_DriveSystemControl_DataInport1_P1_S262
                0x0000000000007a90                ap_read_DriveSystemControl_DataInport1_P1_S263
                0x0000000000007aa0                ap_read_DriveSystemControl_DataInport1_P1_S264
                0x0000000000007ab0                ap_read_DriveSystemControl_DataInport1_P1_S265
                0x0000000000007ac0                ap_read_DriveSystemControl_DataInport1_P1_S266
                0x0000000000007ad0                ap_read_DriveSystemControl_DataInport1_P1_S267
                0x0000000000007ae0                ap_read_DriveSystemControl_DataInport1_P1_S268
                0x0000000000007af0                ap_read_DriveSystemControl_DataInport1_P1_S269
                0x0000000000007b00                ap_read_DriveSystemControl_DataInport1_P1_S270
                0x0000000000007b10                ap_read_DriveSystemControl_DataInport1_P1_S271
                0x0000000000007b20                ap_read_DriveSystemControl_DataInport1_P1_S272
                0x0000000000007b30                ap_read_DriveSystemControl_DataInport1_P1_S273
                0x0000000000007b40                ap_read_DriveSystemControl_DataInport1_P1_S274
                0x0000000000007b50                ap_read_DriveSystemControl_DataInport1_P1_S275
                0x0000000000007b60                ap_read_DriveSystemControl_DataInport1_P1_S276
                0x0000000000007b70                ap_read_DriveSystemControl_DataInport1_P1_S277
                0x0000000000007b80                ap_read_DriveSystemControl_DataInport1_P1_S278
                0x0000000000007b90                ap_read_DriveSystemControl_DataInport1_P1_S279
                0x0000000000007ba0                ap_read_DriveSystemControl_DataInport1_P1_S280
                0x0000000000007bb0                ap_read_DriveSystemControl_DataInport1_P1_S281
                0x0000000000007bc0                ap_read_DriveSystemControl_DataInport1_P1_S282
                0x0000000000007bd0                ap_read_DriveSystemControl_DataInport1_P1_S283
                0x0000000000007be0                ap_read_DriveSystemControl_DataInport1_P1_S284
                0x0000000000007bf0                ap_read_DriveSystemControl_DataInport1_P1_S285
                0x0000000000007c00                ap_read_DriveSystemControl_DataInport1_P1_S286
 *fill*         0x0000000000007c01        0xf 
 .text          0x0000000000007c10     0x2421 data_out_ap.o64
                0x0000000000007c10                ap_write_DriveSystemControl_DataOutport1_P1
                0x0000000000008d80                ap_write_DriveSystemControl_DataOutport1_P1_S1
                0x0000000000008d90                ap_write_DriveSystemControl_DataOutport1_P1_S2
                0x0000000000008da0                ap_write_DriveSystemControl_DataOutport1_P1_S3
                0x0000000000008db0                ap_write_DriveSystemControl_DataOutport1_P1_S4
                0x0000000000008dc0                ap_write_DriveSystemControl_DataOutport1_P1_S5
                0x0000000000008dd0                ap_write_DriveSystemControl_DataOutport1_P1_S6
                0x0000000000008de0                ap_write_DriveSystemControl_DataOutport1_P1_S7
                0x0000000000008df0                ap_write_DriveSystemControl_DataOutport1_P1_S8
                0x0000000000008e00                ap_write_DriveSystemControl_DataOutport1_P1_S9
                0x0000000000008e10                ap_write_DriveSystemControl_DataOutport1_P1_S10
                0x0000000000008e20                ap_write_DriveSystemControl_DataOutport1_P1_S11
                0x0000000000008e30                ap_write_DriveSystemControl_DataOutport1_P1_S12
                0x0000000000008e40                ap_write_DriveSystemControl_DataOutport1_P1_S13
                0x0000000000008e50                ap_write_DriveSystemControl_DataOutport1_P1_S14
                0x0000000000008e60                ap_write_DriveSystemControl_DataOutport1_P1_S15
                0x0000000000008e70                ap_write_DriveSystemControl_DataOutport1_P1_S16
                0x0000000000008e80                ap_write_DriveSystemControl_DataOutport1_P1_S17
                0x0000000000008e90                ap_write_DriveSystemControl_DataOutport1_P1_S18
                0x0000000000008ea0                ap_write_DriveSystemControl_DataOutport1_P1_S19
                0x0000000000008eb0                ap_write_DriveSystemControl_DataOutport1_P1_S20
                0x0000000000008ec0                ap_write_DriveSystemControl_DataOutport1_P1_S21
                0x0000000000008ed0                ap_write_DriveSystemControl_DataOutport1_P1_S22
                0x0000000000008ee0                ap_write_DriveSystemControl_DataOutport1_P1_S23
                0x0000000000008ef0                ap_write_DriveSystemControl_DataOutport1_P1_S24
                0x0000000000008f00                ap_write_DriveSystemControl_DataOutport1_P1_S25
                0x0000000000008f10                ap_write_DriveSystemControl_DataOutport1_P1_S26
                0x0000000000008f20                ap_write_DriveSystemControl_DataOutport1_P1_S27
                0x0000000000008f30                ap_write_DriveSystemControl_DataOutport1_P1_S28
                0x0000000000008f40                ap_write_DriveSystemControl_DataOutport1_P1_S29
                0x0000000000008f50                ap_write_DriveSystemControl_DataOutport1_P1_S30
                0x0000000000008f60                ap_write_DriveSystemControl_DataOutport1_P1_S31
                0x0000000000008f70                ap_write_DriveSystemControl_DataOutport1_P1_S32
                0x0000000000008f80                ap_write_DriveSystemControl_DataOutport1_P1_S33
                0x0000000000008f90                ap_write_DriveSystemControl_DataOutport1_P1_S34
                0x0000000000008fa0                ap_write_DriveSystemControl_DataOutport1_P1_S35
                0x0000000000008fb0                ap_write_DriveSystemControl_DataOutport1_P1_S36
                0x0000000000008fc0                ap_write_DriveSystemControl_DataOutport1_P1_S37
                0x0000000000008fd0                ap_write_DriveSystemControl_DataOutport1_P1_S38
                0x0000000000008fe0                ap_write_DriveSystemControl_DataOutport1_P1_S39
                0x0000000000008ff0                ap_write_DriveSystemControl_DataOutport1_P1_S40
                0x0000000000009000                ap_write_DriveSystemControl_DataOutport1_P1_S41
                0x0000000000009010                ap_write_DriveSystemControl_DataOutport1_P1_S42
                0x0000000000009020                ap_write_DriveSystemControl_DataOutport1_P1_S43
                0x0000000000009030                ap_write_DriveSystemControl_DataOutport1_P1_S44
                0x0000000000009040                ap_write_DriveSystemControl_DataOutport1_P1_S45
                0x0000000000009050                ap_write_DriveSystemControl_DataOutport1_P1_S46
                0x0000000000009060                ap_write_DriveSystemControl_DataOutport1_P1_S47
                0x0000000000009070                ap_write_DriveSystemControl_DataOutport1_P1_S48
                0x0000000000009080                ap_write_DriveSystemControl_DataOutport1_P1_S49
                0x0000000000009090                ap_write_DriveSystemControl_DataOutport1_P1_S50
                0x00000000000090a0                ap_write_DriveSystemControl_DataOutport1_P1_S51
                0x00000000000090b0                ap_write_DriveSystemControl_DataOutport1_P1_S52
                0x00000000000090c0                ap_write_DriveSystemControl_DataOutport1_P1_S53
                0x00000000000090d0                ap_write_DriveSystemControl_DataOutport1_P1_S54
                0x00000000000090e0                ap_write_DriveSystemControl_DataOutport1_P1_S55
                0x00000000000090f0                ap_write_DriveSystemControl_DataOutport1_P1_S56
                0x0000000000009100                ap_write_DriveSystemControl_DataOutport1_P1_S57
                0x0000000000009110                ap_write_DriveSystemControl_DataOutport1_P1_S58
                0x0000000000009120                ap_write_DriveSystemControl_DataOutport1_P1_S59
                0x0000000000009130                ap_write_DriveSystemControl_DataOutport1_P1_S60
                0x0000000000009140                ap_write_DriveSystemControl_DataOutport1_P1_S61
                0x0000000000009150                ap_write_DriveSystemControl_DataOutport1_P1_S62
                0x0000000000009160                ap_write_DriveSystemControl_DataOutport1_P1_S63
                0x0000000000009170                ap_write_DriveSystemControl_DataOutport1_P1_S64
                0x0000000000009180                ap_write_DriveSystemControl_DataOutport1_P1_S65
                0x0000000000009190                ap_write_DriveSystemControl_DataOutport1_P1_S66
                0x00000000000091a0                ap_write_DriveSystemControl_DataOutport1_P1_S67
                0x00000000000091b0                ap_write_DriveSystemControl_DataOutport1_P1_S68
                0x00000000000091c0                ap_write_DriveSystemControl_DataOutport1_P1_S69
                0x00000000000091d0                ap_write_DriveSystemControl_DataOutport1_P1_S70
                0x00000000000091e0                ap_write_DriveSystemControl_DataOutport1_P1_S71
                0x00000000000091f0                ap_write_DriveSystemControl_DataOutport1_P1_S72
                0x0000000000009200                ap_write_DriveSystemControl_DataOutport1_P1_S73
                0x0000000000009210                ap_write_DriveSystemControl_DataOutport1_P1_S74
                0x0000000000009220                ap_write_DriveSystemControl_DataOutport1_P1_S75
                0x0000000000009230                ap_write_DriveSystemControl_DataOutport1_P1_S76
                0x0000000000009240                ap_write_DriveSystemControl_DataOutport1_P1_S77
                0x0000000000009250                ap_write_DriveSystemControl_DataOutport1_P1_S78
                0x0000000000009260                ap_write_DriveSystemControl_DataOutport1_P1_S79
                0x0000000000009270                ap_write_DriveSystemControl_DataOutport1_P1_S80
                0x0000000000009280                ap_write_DriveSystemControl_DataOutport1_P1_S81
                0x0000000000009290                ap_write_DriveSystemControl_DataOutport1_P1_S82
                0x00000000000092a0                ap_write_DriveSystemControl_DataOutport1_P1_S83
                0x00000000000092b0                ap_write_DriveSystemControl_DataOutport1_P1_S84
                0x00000000000092c0                ap_write_DriveSystemControl_DataOutport1_P1_S85
                0x00000000000092d0                ap_write_DriveSystemControl_DataOutport1_P1_S86
                0x00000000000092e0                ap_write_DriveSystemControl_DataOutport1_P1_S87
                0x00000000000092f0                ap_write_DriveSystemControl_DataOutport1_P1_S88
                0x0000000000009300                ap_write_DriveSystemControl_DataOutport1_P1_S89
                0x0000000000009310                ap_write_DriveSystemControl_DataOutport1_P1_S90
                0x0000000000009320                ap_write_DriveSystemControl_DataOutport1_P1_S91
                0x0000000000009330                ap_write_DriveSystemControl_DataOutport1_P1_S92
                0x0000000000009340                ap_write_DriveSystemControl_DataOutport1_P1_S93
                0x0000000000009350                ap_write_DriveSystemControl_DataOutport1_P1_S94
                0x0000000000009360                ap_write_DriveSystemControl_DataOutport1_P1_S95
                0x0000000000009370                ap_write_DriveSystemControl_DataOutport1_P1_S96
                0x0000000000009380                ap_write_DriveSystemControl_DataOutport1_P1_S97
                0x0000000000009390                ap_write_DriveSystemControl_DataOutport1_P1_S98
                0x00000000000093a0                ap_write_DriveSystemControl_DataOutport1_P1_S99
                0x00000000000093b0                ap_write_DriveSystemControl_DataOutport1_P1_S100
                0x00000000000093c0                ap_write_DriveSystemControl_DataOutport1_P1_S101
                0x00000000000093d0                ap_write_DriveSystemControl_DataOutport1_P1_S102
                0x00000000000093e0                ap_write_DriveSystemControl_DataOutport1_P1_S103
                0x00000000000093f0                ap_write_DriveSystemControl_DataOutport1_P1_S104
                0x0000000000009400                ap_write_DriveSystemControl_DataOutport1_P1_S105
                0x0000000000009410                ap_write_DriveSystemControl_DataOutport1_P1_S106
                0x0000000000009420                ap_write_DriveSystemControl_DataOutport1_P1_S107
                0x0000000000009430                ap_write_DriveSystemControl_DataOutport1_P1_S108
                0x0000000000009440                ap_write_DriveSystemControl_DataOutport1_P1_S109
                0x0000000000009450                ap_write_DriveSystemControl_DataOutport1_P1_S110
                0x0000000000009460                ap_write_DriveSystemControl_DataOutport1_P1_S111
                0x0000000000009470                ap_write_DriveSystemControl_DataOutport1_P1_S112
                0x0000000000009480                ap_write_DriveSystemControl_DataOutport1_P1_S113
                0x0000000000009490                ap_write_DriveSystemControl_DataOutport1_P1_S114
                0x00000000000094a0                ap_write_DriveSystemControl_DataOutport1_P1_S115
                0x00000000000094b0                ap_write_DriveSystemControl_DataOutport1_P1_S116
                0x00000000000094c0                ap_write_DriveSystemControl_DataOutport1_P1_S117
                0x00000000000094d0                ap_write_DriveSystemControl_DataOutport1_P1_S118
                0x00000000000094e0                ap_write_DriveSystemControl_DataOutport1_P1_S119
                0x00000000000094f0                ap_write_DriveSystemControl_DataOutport1_P1_S120
                0x0000000000009500                ap_write_DriveSystemControl_DataOutport1_P1_S121
                0x0000000000009510                ap_write_DriveSystemControl_DataOutport1_P1_S122
                0x0000000000009520                ap_write_DriveSystemControl_DataOutport1_P1_S123
                0x0000000000009530                ap_write_DriveSystemControl_DataOutport1_P1_S124
                0x0000000000009540                ap_write_DriveSystemControl_DataOutport1_P1_S125
                0x0000000000009550                ap_write_DriveSystemControl_DataOutport1_P1_S126
                0x0000000000009560                ap_write_DriveSystemControl_DataOutport1_P1_S127
                0x0000000000009570                ap_write_DriveSystemControl_DataOutport1_P1_S128
                0x0000000000009580                ap_write_DriveSystemControl_DataOutport1_P1_S129
                0x0000000000009590                ap_write_DriveSystemControl_DataOutport1_P1_S130
                0x00000000000095a0                ap_write_DriveSystemControl_DataOutport1_P1_S131
                0x00000000000095b0                ap_write_DriveSystemControl_DataOutport1_P1_S132
                0x00000000000095c0                ap_write_DriveSystemControl_DataOutport1_P1_S133
                0x00000000000095d0                ap_write_DriveSystemControl_DataOutport1_P1_S134
                0x00000000000095e0                ap_write_DriveSystemControl_DataOutport1_P1_S135
                0x00000000000095f0                ap_write_DriveSystemControl_DataOutport1_P1_S136
                0x0000000000009600                ap_write_DriveSystemControl_DataOutport1_P1_S137
                0x0000000000009610                ap_write_DriveSystemControl_DataOutport1_P1_S138
                0x0000000000009620                ap_write_DriveSystemControl_DataOutport1_P1_S139
                0x0000000000009630                ap_write_DriveSystemControl_DataOutport1_P1_S140
                0x0000000000009640                ap_write_DriveSystemControl_DataOutport1_P1_S141
                0x0000000000009650                ap_write_DriveSystemControl_DataOutport1_P1_S142
                0x0000000000009660                ap_write_DriveSystemControl_DataOutport1_P1_S143
                0x0000000000009670                ap_write_DriveSystemControl_DataOutport1_P1_S144
                0x0000000000009680                ap_write_DriveSystemControl_DataOutport1_P1_S145
                0x0000000000009690                ap_write_DriveSystemControl_DataOutport1_P1_S146
                0x00000000000096a0                ap_write_DriveSystemControl_DataOutport1_P1_S147
                0x00000000000096b0                ap_write_DriveSystemControl_DataOutport1_P1_S148
                0x00000000000096c0                ap_write_DriveSystemControl_DataOutport1_P1_S149
                0x00000000000096d0                ap_write_DriveSystemControl_DataOutport1_P1_S150
                0x00000000000096e0                ap_write_DriveSystemControl_DataOutport1_P1_S151
                0x00000000000096f0                ap_write_DriveSystemControl_DataOutport1_P1_S152
                0x0000000000009700                ap_write_DriveSystemControl_DataOutport1_P1_S153
                0x0000000000009710                ap_write_DriveSystemControl_DataOutport1_P1_S154
                0x0000000000009720                ap_write_DriveSystemControl_DataOutport1_P1_S155
                0x0000000000009730                ap_write_DriveSystemControl_DataOutport1_P1_S156
                0x0000000000009740                ap_write_DriveSystemControl_DataOutport1_P1_S157
                0x0000000000009750                ap_write_DriveSystemControl_DataOutport1_P1_S158
                0x0000000000009760                ap_write_DriveSystemControl_DataOutport1_P1_S159
                0x0000000000009770                ap_write_DriveSystemControl_DataOutport1_P1_S160
                0x0000000000009780                ap_write_DriveSystemControl_DataOutport1_P1_S161
                0x0000000000009790                ap_write_DriveSystemControl_DataOutport1_P1_S162
                0x00000000000097a0                ap_write_DriveSystemControl_DataOutport1_P1_S163
                0x00000000000097b0                ap_write_DriveSystemControl_DataOutport1_P1_S164
                0x00000000000097c0                ap_write_DriveSystemControl_DataOutport1_P1_S165
                0x00000000000097d0                ap_write_DriveSystemControl_DataOutport1_P1_S166
                0x00000000000097e0                ap_write_DriveSystemControl_DataOutport1_P1_S167
                0x00000000000097f0                ap_write_DriveSystemControl_DataOutport1_P1_S168
                0x0000000000009800                ap_write_DriveSystemControl_DataOutport1_P1_S169
                0x0000000000009810                ap_write_DriveSystemControl_DataOutport1_P1_S170
                0x0000000000009820                ap_write_DriveSystemControl_DataOutport1_P1_S171
                0x0000000000009830                ap_write_DriveSystemControl_DataOutport1_P1_S172
                0x0000000000009840                ap_write_DriveSystemControl_DataOutport1_P1_S173
                0x0000000000009850                ap_write_DriveSystemControl_DataOutport1_P1_S174
                0x0000000000009860                ap_write_DriveSystemControl_DataOutport1_P1_S175
                0x0000000000009870                ap_write_DriveSystemControl_DataOutport1_P1_S176
                0x0000000000009880                ap_write_DriveSystemControl_DataOutport1_P1_S177
                0x0000000000009890                ap_write_DriveSystemControl_DataOutport1_P1_S178
                0x00000000000098a0                ap_write_DriveSystemControl_DataOutport1_P1_S179
                0x00000000000098b0                ap_write_DriveSystemControl_DataOutport1_P1_S180
                0x00000000000098c0                ap_write_DriveSystemControl_DataOutport1_P1_S181
                0x00000000000098d0                ap_write_DriveSystemControl_DataOutport1_P1_S182
                0x00000000000098e0                ap_write_DriveSystemControl_DataOutport1_P1_S183
                0x00000000000098f0                ap_write_DriveSystemControl_DataOutport1_P1_S184
                0x0000000000009900                ap_write_DriveSystemControl_DataOutport1_P1_S185
                0x0000000000009910                ap_write_DriveSystemControl_DataOutport1_P1_S186
                0x0000000000009920                ap_write_DriveSystemControl_DataOutport1_P1_S187
                0x0000000000009930                ap_write_DriveSystemControl_DataOutport1_P1_S188
                0x0000000000009940                ap_write_DriveSystemControl_DataOutport1_P1_S189
                0x0000000000009950                ap_write_DriveSystemControl_DataOutport1_P1_S190
                0x0000000000009960                ap_write_DriveSystemControl_DataOutport1_P1_S191
                0x0000000000009970                ap_write_DriveSystemControl_DataOutport1_P1_S192
                0x0000000000009980                ap_write_DriveSystemControl_DataOutport1_P1_S193
                0x0000000000009990                ap_write_DriveSystemControl_DataOutport1_P1_S194
                0x00000000000099a0                ap_write_DriveSystemControl_DataOutport1_P1_S195
                0x00000000000099b0                ap_write_DriveSystemControl_DataOutport1_P1_S196
                0x00000000000099c0                ap_write_DriveSystemControl_DataOutport1_P1_S197
                0x00000000000099d0                ap_write_DriveSystemControl_DataOutport1_P1_S198
                0x00000000000099e0                ap_write_DriveSystemControl_DataOutport1_P1_S199
                0x00000000000099f0                ap_write_DriveSystemControl_DataOutport1_P1_S200
                0x0000000000009a00                ap_write_DriveSystemControl_DataOutport1_P1_S201
                0x0000000000009a10                ap_write_DriveSystemControl_DataOutport1_P1_S202
                0x0000000000009a20                ap_write_DriveSystemControl_DataOutport1_P1_S203
                0x0000000000009a30                ap_write_DriveSystemControl_DataOutport1_P1_S204
                0x0000000000009a40                ap_write_DriveSystemControl_DataOutport1_P1_S205
                0x0000000000009a50                ap_write_DriveSystemControl_DataOutport1_P1_S206
                0x0000000000009a60                ap_write_DriveSystemControl_DataOutport1_P1_S207
                0x0000000000009a70                ap_write_DriveSystemControl_DataOutport1_P1_S208
                0x0000000000009a80                ap_write_DriveSystemControl_DataOutport1_P1_S209
                0x0000000000009a90                ap_write_DriveSystemControl_DataOutport1_P1_S210
                0x0000000000009aa0                ap_write_DriveSystemControl_DataOutport1_P1_S211
                0x0000000000009ab0                ap_write_DriveSystemControl_DataOutport1_P1_S212
                0x0000000000009ac0                ap_write_DriveSystemControl_DataOutport1_P1_S213
                0x0000000000009ad0                ap_write_DriveSystemControl_DataOutport1_P1_S214
                0x0000000000009ae0                ap_write_DriveSystemControl_DataOutport1_P1_S215
                0x0000000000009af0                ap_write_DriveSystemControl_DataOutport1_P1_S216
                0x0000000000009b00                ap_write_DriveSystemControl_DataOutport1_P1_S217
                0x0000000000009b10                ap_write_DriveSystemControl_DataOutport1_P1_S218
                0x0000000000009b20                ap_write_DriveSystemControl_DataOutport1_P1_S219
                0x0000000000009b30                ap_write_DriveSystemControl_DataOutport1_P1_S220
                0x0000000000009b40                ap_write_DriveSystemControl_DataOutport1_P1_S221
                0x0000000000009b50                ap_write_DriveSystemControl_DataOutport1_P1_S222
                0x0000000000009b60                ap_write_DriveSystemControl_DataOutport1_P1_S223
                0x0000000000009b70                ap_write_DriveSystemControl_DataOutport1_P1_S224
                0x0000000000009b80                ap_write_DriveSystemControl_DataOutport1_P1_S225
                0x0000000000009b90                ap_write_DriveSystemControl_DataOutport1_P1_S226
                0x0000000000009ba0                ap_write_DriveSystemControl_DataOutport1_P1_S227
                0x0000000000009bb0                ap_write_DriveSystemControl_DataOutport1_P1_S228
                0x0000000000009bc0                ap_write_DriveSystemControl_DataOutport1_P1_S229
                0x0000000000009bd0                ap_write_DriveSystemControl_DataOutport1_P1_S230
                0x0000000000009be0                ap_write_DriveSystemControl_DataOutport1_P1_S231
                0x0000000000009bf0                ap_write_DriveSystemControl_DataOutport1_P1_S232
                0x0000000000009c00                ap_write_DriveSystemControl_DataOutport1_P1_S233
                0x0000000000009c10                ap_write_DriveSystemControl_DataOutport1_P1_S234
                0x0000000000009c20                ap_write_DriveSystemControl_DataOutport1_P1_S235
                0x0000000000009c30                ap_write_DriveSystemControl_DataOutport1_P1_S236
                0x0000000000009c40                ap_write_DriveSystemControl_DataOutport1_P1_S237
                0x0000000000009c50                ap_write_DriveSystemControl_DataOutport1_P1_S238
                0x0000000000009c60                ap_write_DriveSystemControl_DataOutport1_P1_S239
                0x0000000000009c70                ap_write_DriveSystemControl_DataOutport1_P1_S240
                0x0000000000009c80                ap_write_DriveSystemControl_DataOutport1_P1_S241
                0x0000000000009c90                ap_write_DriveSystemControl_DataOutport1_P1_S242
                0x0000000000009ca0                ap_write_DriveSystemControl_DataOutport1_P1_S243
                0x0000000000009cb0                ap_write_DriveSystemControl_DataOutport1_P1_S244
                0x0000000000009cc0                ap_write_DriveSystemControl_DataOutport1_P1_S245
                0x0000000000009cd0                ap_write_DriveSystemControl_DataOutport1_P1_S246
                0x0000000000009ce0                ap_write_DriveSystemControl_DataOutport1_P1_S247
                0x0000000000009cf0                ap_write_DriveSystemControl_DataOutport1_P1_S248
                0x0000000000009d00                ap_write_DriveSystemControl_DataOutport1_P1_S249
                0x0000000000009d10                ap_write_DriveSystemControl_DataOutport1_P1_S250
                0x0000000000009d20                ap_write_DriveSystemControl_DataOutport1_P1_S251
                0x0000000000009d30                ap_write_DriveSystemControl_DataOutport1_P1_S252
                0x0000000000009d40                ap_write_DriveSystemControl_DataOutport1_P1_S253
                0x0000000000009d50                ap_write_DriveSystemControl_DataOutport1_P1_S254
                0x0000000000009d60                ap_write_DriveSystemControl_DataOutport1_P1_S255
                0x0000000000009d70                ap_write_DriveSystemControl_DataOutport1_P1_S256
                0x0000000000009d80                ap_write_DriveSystemControl_DataOutport1_P1_S257
                0x0000000000009d90                ap_write_DriveSystemControl_DataOutport1_P1_S258
                0x0000000000009da0                ap_write_DriveSystemControl_DataOutport1_P1_S259
                0x0000000000009db0                ap_write_DriveSystemControl_DataOutport1_P1_S260
                0x0000000000009dc0                ap_write_DriveSystemControl_DataOutport1_P1_S261
                0x0000000000009dd0                ap_write_DriveSystemControl_DataOutport1_P1_S262
                0x0000000000009de0                ap_write_DriveSystemControl_DataOutport1_P1_S263
                0x0000000000009df0                ap_write_DriveSystemControl_DataOutport1_P1_S264
                0x0000000000009e00                ap_write_DriveSystemControl_DataOutport1_P1_S265
                0x0000000000009e10                ap_write_DriveSystemControl_DataOutport1_P1_S266
                0x0000000000009e20                ap_write_DriveSystemControl_DataOutport1_P1_S267
                0x0000000000009e30                ap_write_DriveSystemControl_DataOutport1_P1_S268
                0x0000000000009e40                ap_write_DriveSystemControl_DataOutport1_P1_S269
                0x0000000000009e50                ap_write_DriveSystemControl_DataOutport1_P1_S270
                0x0000000000009e60                ap_write_DriveSystemControl_DataOutport1_P1_S271
                0x0000000000009e70                ap_write_DriveSystemControl_DataOutport1_P1_S272
                0x0000000000009e80                ap_write_DriveSystemControl_DataOutport1_P1_S273
                0x0000000000009e90                ap_write_DriveSystemControl_DataOutport1_P1_S274
                0x0000000000009ea0                ap_write_DriveSystemControl_DataOutport1_P1_S275
                0x0000000000009eb0                ap_write_DriveSystemControl_DataOutport1_P1_S276
                0x0000000000009ec0                ap_write_DriveSystemControl_DataOutport1_P1_S277
                0x0000000000009ed0                ap_write_DriveSystemControl_DataOutport1_P1_S278
                0x0000000000009ee0                ap_write_DriveSystemControl_DataOutport1_P1_S279
                0x0000000000009ef0                ap_write_DriveSystemControl_DataOutport1_P1_S280
                0x0000000000009f00                ap_write_DriveSystemControl_DataOutport1_P1_S281
                0x0000000000009f10                ap_write_DriveSystemControl_DataOutport1_P1_S282
                0x0000000000009f20                ap_write_DriveSystemControl_DataOutport1_P1_S283
                0x0000000000009f30                ap_write_DriveSystemControl_DataOutport1_P1_S284
                0x0000000000009f40                ap_write_DriveSystemControl_DataOutport1_P1_S285
                0x0000000000009f50                ap_write_DriveSystemControl_DataOutport1_P1_S286
                0x0000000000009f60                ap_write_DriveSystemControl_DataOutport1_P1_S287
                0x0000000000009f70                ap_write_DriveSystemControl_DataOutport1_P1_S288
                0x0000000000009f80                ap_write_DriveSystemControl_DataOutport1_P1_S289
                0x0000000000009f90                ap_write_DriveSystemControl_DataOutport1_P1_S290
                0x0000000000009fa0                ap_write_DriveSystemControl_DataOutport1_P1_S291
                0x0000000000009fb0                ap_write_DriveSystemControl_DataOutport1_P1_S292
                0x0000000000009fc0                ap_write_DriveSystemControl_DataOutport1_P1_S293
                0x0000000000009fd0                ap_write_DriveSystemControl_DataOutport1_P1_S294
                0x0000000000009fe0                ap_write_DriveSystemControl_DataOutport1_P1_S295
                0x0000000000009ff0                ap_write_DriveSystemControl_DataOutport1_P1_S296
                0x000000000000a000                ap_write_DriveSystemControl_DataOutport1_P1_S297
                0x000000000000a010                ap_write_DriveSystemControl_DataOutport1_P1_S298
                0x000000000000a020                ap_write_DriveSystemControl_DataOutport1_P1_S299
                0x000000000000a030                ap_write_DriveSystemControl_DataOutport1_P1_S300
 *fill*         0x000000000000a031        0xf 
 .text          0x000000000000a040       0x10 fm_entry_ap.o64
                0x000000000000a040                ap_entry_DriveSystemControl_SIDRoot_TID0
 .text          0x000000000000a050       0x10 fm_exit_ap.o64
                0x000000000000a050                ap_exit_DriveSystemControl_SIDRoot_TID0
 .text          0x000000000000a060      0x683 dssimengine_accesspoint.o64
                0x000000000000a060                ApSimEngineOnInitMdl
                0x000000000000a080                ApSimEngineOnStartMdl
                0x000000000000a0a0                ApSimEngineOnStopMdl
                0x000000000000a0c0                ApSimEngineOnTerminateMdl
                0x000000000000a0d0                ApSimEngineOnUnloadMdl
                0x000000000000a0f0                ApSimEngineOnInitImc
                0x000000000000a110                ApSimEngineOnStartImc
                0x000000000000a130                ApSimEngineOnStopImc
                0x000000000000a150                ApSimEngineOnTerminateImc
                0x000000000000a170                ApSimEngineOnUnloadImc
                0x000000000000a190                ApSimEngineOnInitIoPreRtosInit
                0x000000000000a200                ApSimEngineOnInitHwDiagnostics
                0x000000000000a370                ApSimEngineOnStopIo
                0x000000000000a390                ApSimEngineOnTerminateIo
                0x000000000000a3b0                ApSimEngineOnUnloadIo
                0x000000000000a3d0                ApSimEngineOnInitRtos
                0x000000000000a420                ApSimEngineOnStartRtos
                0x000000000000a440                ApSimEngineOnStopRtos
                0x000000000000a460                ApSimEngineOnStop
                0x000000000000a4b0                ApSimEngineOnTerminateRtos
                0x000000000000a4d0                ApSimEngineOnTerminate
                0x000000000000a520                ApSimEngineOnUnloadRtos
                0x000000000000a540                ApSimEngineOnUnload
                0x000000000000a590                ApSimEngineIdle
                0x000000000000a5b0                _Z22ApSimEngineRunTimeInitR16DsCErrorListPooli
                0x000000000000a5c0                ApSimEngineOnInitIoPostRtosInit
                0x000000000000a600                ApSimEngineOnInit
                0x000000000000a660                ApSimEngineOnStartIo
                0x000000000000a6a0                ApSimEngineOnStart
 *fill*         0x000000000000a6e3        0xd 
 .text          0x000000000000a6f0       0x57 dssimengine_api.o64
                0x000000000000a6f0                _Z25SimEngineLastApplStateGetv
                0x000000000000a700                _Z16SimEngineApplGetv
                0x000000000000a710                _Z17SimEngineApplStopv
                0x000000000000a730                _Z22SimEngineApplTerminatev
 *fill*         0x000000000000a747        0x9 
 .text          0x000000000000a750      0x187 dssimengine_main.o64
                0x000000000000a750                destroyApplication
                0x000000000000a770                getApplicationErrorList
                0x000000000000a780                _ZN18DsCApplicationMainD1Ev
                0x000000000000a780                _ZN18DsCApplicationMainD2Ev
                0x000000000000a7b0                _ZN18DsCApplicationMainD0Ev
                0x000000000000a7d0                _ZN18DsCApplicationMain6onInitER16DsCErrorListPool
                0x000000000000a7f0                _ZN18DsCApplicationMain7onStartER16DsCErrorListPool
                0x000000000000a810                _ZN18DsCApplicationMain6onStopER16DsCErrorListPool
                0x000000000000a830                _ZN18DsCApplicationMain11onTerminateER16DsCErrorListPool
                0x000000000000a850                _ZN18DsCApplicationMain8onUnloadER16DsCErrorListPool
                0x000000000000a860                _ZN18DsCApplicationMain6onIdleER16DsCErrorListPool
                0x000000000000a870                _ZN18DsCApplicationMainC2ER16DsCErrorListPool
                0x000000000000a870                _ZN18DsCApplicationMainC1ER16DsCErrorListPool
                0x000000000000a8a0                createApplication
 *fill*         0x000000000000a8d7        0x9 
 .text          0x000000000000a8e0      0x622 rtosal_task.o64
                0x000000000000a8e0                _ZN24DsCRtosAlPeriodic_Task_1D1Ev
                0x000000000000a8e0                _ZN24DsCRtosAlPeriodic_Task_1D2Ev
                0x000000000000a900                _ZN24DsCRtosAlPeriodic_Task_1D0Ev
                0x000000000000a920                _ZN26DsCRtosAlBus_ConfigurationD2Ev
                0x000000000000a920                _ZN26DsCRtosAlBus_ConfigurationD1Ev
                0x000000000000a940                _ZN26DsCRtosAlBus_ConfigurationD0Ev
                0x000000000000a960                _ZN24DsCRtosAlCAN_RX_Task_i1_D2Ev
                0x000000000000a960                _ZN24DsCRtosAlCAN_RX_Task_i1_D1Ev
                0x000000000000a980                _ZN24DsCRtosAlCAN_RX_Task_i1_D0Ev
                0x000000000000a9a0                _ZN24DsCRtosAlPeriodic_Task_15onRunER16DsCErrorListPool
                0x000000000000a9f0                _ZN26DsCRtosAlBus_Configuration5onRunER16DsCErrorListPool
                0x000000000000aa10                _ZN24DsCRtosAlCAN_RX_Task_i1_5onRunER16DsCErrorListPool
                0x000000000000aa30                _ZN24DsCRtosAlPeriodic_Task_1C2ER16DsCErrorListPoolP14DsCApplicationPKcjjjjjjjP7DsCTaskj
                0x000000000000aa30                _ZN24DsCRtosAlPeriodic_Task_1C1ER16DsCErrorListPoolP14DsCApplicationPKcjjjjjjjP7DsCTaskj
                0x000000000000aa80                _ZN24DsCRtosAlPeriodic_Task_16createER16DsCErrorListPoolP14DsCApplicationPKcjjjjjjjP7DsCTaskj
                0x000000000000ab30                _ZN26DsCRtosAlBus_ConfigurationC1ER16DsCErrorListPoolP14DsCApplicationPKcjjjjjjjP7DsCTaskj
                0x000000000000ab30                _ZN26DsCRtosAlBus_ConfigurationC2ER16DsCErrorListPoolP14DsCApplicationPKcjjjjjjjP7DsCTaskj
                0x000000000000ab80                _ZN26DsCRtosAlBus_Configuration6createER16DsCErrorListPoolP14DsCApplicationPKcjjjjjjjP7DsCTaskj
                0x000000000000ac30                _ZN24DsCRtosAlCAN_RX_Task_i1_C1ER16DsCErrorListPoolP14DsCApplicationPKcjjjjjjjP7DsCTaskj
                0x000000000000ac30                _ZN24DsCRtosAlCAN_RX_Task_i1_C2ER16DsCErrorListPoolP14DsCApplicationPKcjjjjjjjP7DsCTaskj
                0x000000000000ac80                _ZN24DsCRtosAlCAN_RX_Task_i1_6createER16DsCErrorListPoolP14DsCApplicationPKcjjjjjjjP7DsCTaskj
                0x000000000000ad30                _Z37RtosAlDefaultDeadlineViolationHandlerR16DsCErrorListPoolP7DsCTask
                0x000000000000add0                _Z35RtosAlProfilerSourcesInitializationv
                0x000000000000ade0                _Z20RtosAlHandleOverrunsP7DsCTaski
                0x000000000000aeb0                _ZN24DsCRtosAlPeriodic_Task_19onOverrunER16DsCErrorListPool
                0x000000000000aed0                _ZN26DsCRtosAlBus_Configuration9onOverrunER16DsCErrorListPool
                0x000000000000aef0                _ZN24DsCRtosAlCAN_RX_Task_i1_9onOverrunER16DsCErrorListPool
 *fill*         0x000000000000af02        0xe 
 .text          0x000000000000af10      0x106 rtosal_taskap.o64
                0x000000000000af10                RtosAlTask_02_TaskEntry
                0x000000000000af20                RtosAlTask_02_TaskExit
                0x000000000000af90                RtosAlccaba9c9minusb575minus45beminusbbebminus0e8e7673e163_TaskEntry
                0x000000000000afa0                RtosAlccaba9c9minusb575minus45beminusbbebminus0e8e7673e163_TaskExit
                0x000000000000b000                RtosAlCAN_RX_Task_TaskEntry
                0x000000000000b010                RtosAlCAN_RX_Task_TaskExit
 *fill*         0x000000000000b016        0xa 
 .text          0x000000000000b020      0x3a1 rtosal_simengineap.o64
                0x000000000000b020                _Z12RtosAlOnInitR16DsCErrorListPool
                0x000000000000b220                _Z13RtosAlOnStartR16DsCErrorListPool
 *fill*         0x000000000000b3c1        0xf 
 .text          0x000000000000b3d0       0x10 IOCode_Data.o64
                0x000000000000b3d0                _Z25CAN_RX_Component_Functionv
 .text          0x000000000000b3e0      0x8af dssimengine_accesspoint_CAN.o64
                0x000000000000b3e0                _Z49ApSimEngineOnInitIoPreRtosInit_ctlcBODY_2_WIP_i1_R16DsCErrorListPoolP14DsCApplication
                0x000000000000b440                _Z50ApSimEngineOnInitIoPostRtosInit_ctlcBODY_0_WIP_i1_R16DsCErrorListPool
                0x000000000000bc50                _Z43ApSimEngineOnTerminateIo_ctlcBODY_0_WIP_i1_R16DsCErrorListPool
                0x000000000000bc60                _Z40ApSimEngineOnUnloadIo_ctlcBODY_0_WIP_i1_R16DsCErrorListPool
 *fill*         0x000000000000bc8f        0x1 
 .text          0x000000000000bc90     0x3a1f IOCode_TestAutomationInit_0.o64
                0x000000000000bc90                _Z27IOCode_TestAutomationInit_0v
 *fill*         0x000000000000f6af        0x1 
 .text          0x000000000000f6b0      0x194 BusManager_Bus_Configuration_i1_i12777_1.o64
                0x000000000000f6b0                BM_BUS_CONFIGURATION_i1_i12777_1_Init
                0x000000000000f780                BM_BUS_CONFIGURATION_i1_i12777_1_OnStart
                0x000000000000f7b0                BM_BUS_CONFIGURATION_i1_i12777_1_OnStop
                0x000000000000f7d0                BM_BUS_CONFIGURATION_i1_i12777_1_VariableInitialize
 *fill*         0x000000000000f844        0xc 
 .text          0x000000000000f850      0x1ca Bus_Configuration_i1_i12777.o64
                0x000000000000f850                Bus_Configuration_i1_i12777_PostStart
                0x000000000000f870                Bus_Configuration_i1_i12777_OnStart
                0x000000000000f8a0                Bus_Configuration_i1_i12777_PostStop
                0x000000000000f8b0                Bus_Configuration_i1_i12777_OnStop
                0x000000000000f8d0                Bus_Configuration_i1_i12777_VariableInitialize
                0x000000000000f8f0                Bus_Configuration_i1_i12777_Init
                0x000000000000f940                _Z47Bus_Configuration_i1_i12777_AdjustCreditCounterii
                0x000000000000f9d0                Bus_Configuration_i1_iBusCfg_MainFunction_14810_14808
 *fill*         0x000000000000fa1a        0x6 
 .text          0x000000000000fa20      0x35e Bus_Configuration_i1_i12777_tx.o64
                0x000000000000fab0                Bus_Configuration_i1_i12777_BusCfgTx_VariableInitialize
                0x000000000000fac0                Bus_Configuration_i1_i12777_BusCfgTx_Init
                0x000000000000fb00                Bus_Configuration_i1_i12777_InitializePduTimings
                0x000000000000fb70                Bus_Configuration_i1_i12777_BusCfgTx_OnStart
                0x000000000000fb80                Bus_Configuration_i1_i12777_BusCfgTx_SetPduPeriodOffset
                0x000000000000fc10                Bus_Configuration_i1_i12777_BusCfgTx_SetPduPending
                0x000000000000fc30                Bus_Configuration_i1_i12777_BusCfgTx_TriggerPendingPdus
 *fill*         0x000000000000fd7e        0x2 
 .text          0x000000000000fd80        0x1 Bus_Configuration_i1_i12777_if.o64
                0x000000000000fd80                Bus_Configuration_i1_i12777__InitializeModelAPI
 *fill*         0x000000000000fd81        0xf 
 .text          0x000000000000fd90      0x421 Bus_Configuration_i1_i12777_CAN.o64
                0x000000000000fdb0                Bus_Configuration_i1_i12777_CAN_Receive
                0x000000000000ff20                Bus_Configuration_i1_i12777_CAN_Init
                0x000000000000ff30                Bus_Configuration_i1_i12777_CAN_PostStart
                0x000000000000ff90                Bus_Configuration_i1_i12777_CAN_PostStop
                0x000000000000fff0                Bus_Configuration_i1_i12777_CAN_VariableInitialize
                0x0000000000010160                Bus_Configuration_i1_i12777_CAN_BoardUpdate
                0x0000000000010180                Bus_Configuration_i1_i12777_CAN_GetTxQueueCount
 *fill*         0x00000000000101b1        0xf 
 .text          0x00000000000101c0       0x69 BusRtCode.o64
                0x00000000000101c0                _Z14BusRtCode_Initv
                0x00000000000101e0                _Z17BusRtCode_OnStartv
                0x0000000000010200                _Z16BusRtCode_OnStopv
                0x0000000000010210                CheckCanBoardUpdate_CANBUSACCESS_1_CAN_CH
 *fill*         0x0000000000010229        0x7 
 .text          0x0000000000010230       0x45 ConvertHwTimeToSimTime.o64
                0x0000000000010230                ConvertHwTimeToSimTime
 *fill*         0x0000000000010275        0xb 
 .text          0x0000000000010280      0x129 C:\Users\MURTI\AppData\Local\Temp\dSPACE\CfgDesk\AppCache\3\Build\EXP_03\Compile\DriveSystemControl\DriveSystemControl.a(DriveSystemControl_dsrtmdlfcn.o64)
                0x0000000000010280                DriveSystemControl_DSRTCheckForErrorStatus
                0x00000000000102d0                DriveSystemControl_DSRTInitMdl
                0x0000000000010300                DriveSystemControl_DSRTStartMdl
                0x0000000000010330                DriveSystemControl_DSRTStopMdl
                0x0000000000010350                DriveSystemControl_DSRTCheckForSimulationStopCondition
 *fill*         0x00000000000103a9        0x7 
 .text          0x00000000000103b0       0x16 C:\Users\MURTI\AppData\Local\Temp\dSPACE\CfgDesk\AppCache\3\Build\EXP_03\Compile\DriveSystemControl\DriveSystemControl.a(DriveSystemControl_dsrttf.o64)
                0x00000000000103b0                DriveSystemControl_DSRTMdlOutputs0
                0x00000000000103c0                DriveSystemControl_DSRTMdlUpdate0
 *fill*         0x00000000000103c6        0xa 
 .text          0x00000000000103d0     0x1381 C:\Users\MURTI\AppData\Local\Temp\dSPACE\CfgDesk\AppCache\3\Build\EXP_03\Compile\DriveSystemControl\DriveSystemControl.a(DriveSystemControl.o64)
                0x00000000000103d0                DriveSystemControl_output
                0x0000000000011290                DriveSystemControl_update
                0x00000000000112a0                DriveSystemControl_initialize
                0x0000000000011750                DriveSystemControl_terminate
 .text          0x0000000000011751        0x0 C:\Users\MURTI\AppData\Local\Temp\dSPACE\CfgDesk\AppCache\3\Build\EXP_03\Compile\DriveSystemControl\DriveSystemControl.a(DriveSystemControl_data.o64)
 *fill*         0x0000000000011751        0xf 
 .text          0x0000000000011760      0x5b5 C:\Users\MURTI\AppData\Local\Temp\dSPACE\CfgDesk\AppCache\3\Build\EXP_03\Compile\DriveSystemControl\DriveSystemControl.a(DriveSystemControl_dsmpb_bd.o64)
                0x0000000000011760                InitializeBusStructs
 *fill*         0x0000000000011d15        0xb 
 .text          0x0000000000011d20       0xfc C:\Users\MURTI\AppData\Local\Temp\dSPACE\CfgDesk\AppCache\3\Build\EXP_03\Compile\DriveSystemControl\DriveSystemControl.a(DriveSystemControl_dsrtvdf.o64)
                0x0000000000011e10                DriveSystemControl_rti_init_trc_pointers
 *fill*         0x0000000000011e1c        0x4 
 .text          0x0000000000011e20      0x169 C:\Users\MURTI\AppData\Local\Temp\dSPACE\CfgDesk\AppCache\3\Build\EXP_03\Compile\Inspection_12777_1\Inspection_12777_1.a(CanInspection.o64)
                0x0000000000011e20                BM_BUS_CONFIGURATION_i1_i12777_1_CanInspect_Init
                0x0000000000011ed0                BM_BUS_CONFIGURATION_i1_i12777_1_CanInspect_Handle
                0x0000000000011ee0                BM_BUS_CONFIGURATION_i1_i12777_1_CanInspect_Receive
                0x0000000000011f40                BM_BUS_CONFIGURATION_i1_i12777_1_CanInspect_DiscardMessages
 *fill*         0x0000000000011f89        0x7 
 .text          0x0000000000011f90       0x9e C:\Users\MURTI\AppData\Local\Temp\dSPACE\CfgDesk\AppCache\3\Build\EXP_03\Compile\Inspection_12777_1\Inspection_12777_1.a(CanInspection_Cfg.o64)
                0x0000000000011fb0                BM_BUS_CONFIGURATION_i1_i12777_1_CanInspect_OnInit
                0x0000000000011fc0                BM_BUS_CONFIGURATION_i1_i12777_1_CanInspect_VariableInitialize
                0x0000000000011fd0                BM_BUS_CONFIGURATION_i1_i12777_1_CanInspect_OnStart
                0x0000000000011fe0                BM_BUS_CONFIGURATION_i1_i12777_1_CanInspect_OnStop
                0x0000000000011ff0                BM_BUS_CONFIGURATION_i1_i12777_1_Inspect_CanMainFunction
 *fill*         0x000000000001202e        0x2 
 .text          0x0000000000012030       0x36 C:\Users\MURTI\AppData\Local\Temp\dSPACE\CfgDesk\AppCache\3\Build\EXP_03\Compile\Inspection_12777_1\Inspection_12777_1.a(InspectionInterface.o64)
                0x0000000000012030                BM_BUS_CONFIGURATION_i1_i12777_1_Inspect_VariableInitialize
                0x0000000000012040                BM_BUS_CONFIGURATION_i1_i12777_1_Inspect_OnStart
                0x0000000000012050                BM_BUS_CONFIGURATION_i1_i12777_1_Inspect_OnStop
                0x0000000000012060                BM_BUS_CONFIGURATION_i1_i12777_1_Inspect_OnInit
 *fill*         0x0000000000012066        0xa 
 .text          0x0000000000012070     0x1441 C:\Users\MURTI\AppData\Local\Temp\dSPACE\CfgDesk\AppCache\3\Build\EXP_03\Compile\BMS_12777_1\BMS_12777_1.a(CanIf.o64)
                0x0000000000012070                BM_BUS_CONFIGURATION_i1_i12777_1_BMS_CanIf_CheckTrcvWakeFlagIndication
                0x0000000000012220                BM_BUS_CONFIGURATION_i1_i12777_1_BMS_CanIf_TxConfirmation
                0x0000000000012340                BM_BUS_CONFIGURATION_i1_i12777_1_BMS_CanIf_InitController
                0x00000000000126c0                BM_BUS_CONFIGURATION_i1_i12777_1_BMS_CanIf_SetControllerMode
                0x0000000000012800                BM_BUS_CONFIGURATION_i1_i12777_1_BMS_CanIf_InitFunction
                0x0000000000012b00                BM_BUS_CONFIGURATION_i1_i12777_1_BMS_CanIf_GetControllerMode
                0x0000000000012b50                BM_BUS_CONFIGURATION_i1_i12777_1_BMS_CanIf_Transmit
                0x0000000000012b80                BM_BUS_CONFIGURATION_i1_i12777_1_BMS_CanIf_TransmitFunction
                0x0000000000012e50                BM_BUS_CONFIGURATION_i1_i12777_1_BMS_CanIf_ReadRxPduData
                0x0000000000012f30                BM_BUS_CONFIGURATION_i1_i12777_1_BMS_CanIf_ReadTxNotifStatus
                0x0000000000012f60                BM_BUS_CONFIGURATION_i1_i12777_1_BMS_CanIf_ReadRxNotifStatus
                0x0000000000012f90                BM_BUS_CONFIGURATION_i1_i12777_1_BMS_CanIf_SetPduMode
                0x0000000000013060                BM_BUS_CONFIGURATION_i1_i12777_1_BMS_CanIf_GetPduMode
                0x00000000000130c0                BM_BUS_CONFIGURATION_i1_i12777_1_BMS_CanIf_GetVersionInfo
                0x00000000000130f0                BM_BUS_CONFIGURATION_i1_i12777_1_BMS_CanIf_SetDynamicTxId
                0x0000000000013150                BM_BUS_CONFIGURATION_i1_i12777_1_BMS_CanIf_SetTransceiverMode
                0x0000000000013160                BM_BUS_CONFIGURATION_i1_i12777_1_BMS_CanIf_GetTransceiverMode
                0x0000000000013170                BM_BUS_CONFIGURATION_i1_i12777_1_BMS_CanIf_GetTrcvWakeupReason
                0x0000000000013180                BM_BUS_CONFIGURATION_i1_i12777_1_BMS_CanIf_SetTransceiverWakeupMode
                0x0000000000013190                BM_BUS_CONFIGURATION_i1_i12777_1_BMS_CanIf_CheckWakeup
                0x00000000000131d0                BM_BUS_CONFIGURATION_i1_i12777_1_BMS_CanIf_CheckValidation
                0x0000000000013220                BM_BUS_CONFIGURATION_i1_i12777_1_BMS_CanIf_GetTxConfirmationState
                0x0000000000013250                BM_BUS_CONFIGURATION_i1_i12777_1_BMS_CanIf_ClearTrcvWufFlag
                0x0000000000013260                BM_BUS_CONFIGURATION_i1_i12777_1_BMS_CanIf_CheckTrcvWakeFlag
                0x0000000000013270                BM_BUS_CONFIGURATION_i1_i12777_1_BMS_CanIf_RxIndication
                0x0000000000013370                BM_BUS_CONFIGURATION_i1_i12777_1_BMS_CanIf_RxInterruptIndication
                0x0000000000013410                BM_BUS_CONFIGURATION_i1_i12777_1_BMS_CanIf_CancelTxConfirmation
                0x0000000000013420                BM_BUS_CONFIGURATION_i1_i12777_1_BMS_CanIf_ControllerBusOff
                0x0000000000013490                BM_BUS_CONFIGURATION_i1_i12777_1_BMS_CanIf_ConfirmPnAvailability
                0x00000000000134a0                BM_BUS_CONFIGURATION_i1_i12777_1_BMS_CanIf_ClearTrcvWufFlagIndication
                0x00000000000134b0                BM_BUS_CONFIGURATION_i1_i12777_1_BMS_CanIf_TrcvModeIndication
 *fill*         0x00000000000134b1        0xf 
 .text          0x00000000000134c0      0x16b C:\Users\MURTI\AppData\Local\Temp\dSPACE\CfgDesk\AppCache\3\Build\EXP_03\Compile\BMS_12777_1\BMS_12777_1.a(CanIf_Cfg.o64)
                0x00000000000134c0                BM_BUS_CONFIGURATION_i1_i12777_1_BMS_CanIf_InitDefaultConfig
                0x0000000000013510                BM_BUS_CONFIGURATION_i1_i12777_1_BMS_CanIf_Init
                0x0000000000013520                BM_BUS_CONFIGURATION_i1_i12777_1_BMS_CanIf_VariableInitialize
 .text          0x000000000001362b        0x0 C:\Users\MURTI\AppData\Local\Temp\dSPACE\CfgDesk\AppCache\3\Build\EXP_03\Compile\BMS_12777_1\BMS_12777_1.a(CanIf_Cfg_BusAccess.o64)
 *fill*         0x000000000001362b        0x5 
 .text          0x0000000000013630      0x6b6 C:\Users\MURTI\AppData\Local\Temp\dSPACE\CfgDesk\AppCache\3\Build\EXP_03\Compile\BMS_12777_1\BMS_12777_1.a(Rte_generated.o64)
                0x0000000000013630                BM_BUS_CONFIGURATION_i1_i12777_1_BMS_Rte_SetPhysicalValue
                0x0000000000013740                BM_BUS_CONFIGURATION_i1_i12777_1_BMS_Rte_SetPhysicalEvent
                0x0000000000013750                BM_BUS_CONFIGURATION_i1_i12777_1_BMS_Rte_SetCodedValue
                0x0000000000013ac0                BM_BUS_CONFIGURATION_i1_i12777_1_BMS_Rte_VariableInitialize
                0x0000000000013ca0                BM_BUS_CONFIGURATION_i1_i12777_1_BMS_Rte_SetCodedEvent
                0x0000000000013cb0                BM_BUS_CONFIGURATION_i1_i12777_1_BMS_Rte_GetMethodInArguments
                0x0000000000013cc0                BM_BUS_CONFIGURATION_i1_i12777_1_BMS_Rte_SetMethodOutArguments
                0x0000000000013cd0                BM_BUS_CONFIGURATION_i1_i12777_1_BMS_Rte_WriteSignal
                0x0000000000013ce0                BM_BUS_CONFIGURATION_i1_i12777_1_BMS_Rte_ReadSignal
 *fill*         0x0000000000013ce6        0xa 
 .text          0x0000000000013cf0       0x7a C:\Users\MURTI\AppData\Local\Temp\dSPACE\CfgDesk\AppCache\3\Build\EXP_03\Compile\BMS_12777_1\BMS_12777_1.a(Com_generated.o64)
                0x0000000000013cf0                BM_BUS_CONFIGURATION_i1_i12777_1_BMS_Com_Init
                0x0000000000013d20                BM_BUS_CONFIGURATION_i1_i12777_1_BMS_Com_DeInit
                0x0000000000013d30                BM_BUS_CONFIGURATION_i1_i12777_1_BMS_Com_VariableInitialize
                0x0000000000013d50                BM_BUS_CONFIGURATION_i1_i12777_1_BMS_Com_OnStart
                0x0000000000013d60                BM_BUS_CONFIGURATION_i1_i12777_1_BMS_Com_GetStatus
 *fill*         0x0000000000013d6a        0x6 
 .text          0x0000000000013d70      0x5d1 C:\Users\MURTI\AppData\Local\Temp\dSPACE\CfgDesk\AppCache\3\Build\EXP_03\Compile\BMS_12777_1\BMS_12777_1.a(Com_Tx_generated.o64)
                0x0000000000013d70                BM_BUS_CONFIGURATION_i1_i12777_1_BMS_Com_Tx_Init
                0x0000000000013dc0                BM_BUS_CONFIGURATION_i1_i12777_1_BMS_Com_Tx_VariableInitialize
                0x0000000000013ea0                BM_BUS_CONFIGURATION_i1_i12777_1_BMS_Com_TriggerIPDUSend
                0x0000000000014050                BM_BUS_CONFIGURATION_i1_i12777_1_BMS_Com_TriggerTransmit
                0x0000000000014210                BM_BUS_CONFIGURATION_i1_i12777_1_BMS_Com_TriggerIPDU
                0x0000000000014250                BM_BUS_CONFIGURATION_i1_i12777_1_BMS_Com_SendSignal
                0x00000000000142e0                BM_BUS_CONFIGURATION_i1_i12777_1_BMS_Com_SendSignalGroup
                0x00000000000142f0                BM_BUS_CONFIGURATION_i1_i12777_1_BMS_Com_UpdateShadowSignal
                0x0000000000014300                BM_BUS_CONFIGURATION_i1_i12777_1_BMS_Com_InvalidateSignal
                0x0000000000014310                BM_BUS_CONFIGURATION_i1_i12777_1_BMS_Com_InvalidateShadowSignal
                0x0000000000014320                BM_BUS_CONFIGURATION_i1_i12777_1_BMS_Com_InvalidateSignalGroup
                0x0000000000014330                BM_BUS_CONFIGURATION_i1_i12777_1_BMS_Com_PduEnabledSendCheck
                0x0000000000014340                BM_BUS_CONFIGURATION_i1_i12777_1_BMS_Com_TxConfirmation
 *fill*         0x0000000000014341        0xf 
 .text          0x0000000000014350      0x1ef C:\Users\MURTI\AppData\Local\Temp\dSPACE\CfgDesk\AppCache\3\Build\EXP_03\Compile\BMS_12777_1\BMS_12777_1.a(Com_Rx_generated.o64)
                0x0000000000014350                BM_BUS_CONFIGURATION_i1_i12777_1_BMS_Com_Rx_Init
                0x0000000000014380                BM_BUS_CONFIGURATION_i1_i12777_1_BMS_Com_Rx_VariableInitialize
                0x0000000000014390                BM_BUS_CONFIGURATION_i1_i12777_1_BMS_Com_ReceiveSignal
                0x0000000000014400                BM_BUS_CONFIGURATION_i1_i12777_1_BMS_Com_ReceiveSignalGroup
                0x0000000000014410                BM_BUS_CONFIGURATION_i1_i12777_1_BMS_Com_ReceiveShadowSignal
                0x0000000000014420                BM_BUS_CONFIGURATION_i1_i12777_1_BMS_Com_RxIndication
 .text          0x000000000001453f        0x0 C:\Users\MURTI\AppData\Local\Temp\dSPACE\CfgDesk\AppCache\3\Build\EXP_03\Compile\BMS_12777_1\BMS_12777_1.a(PduR_Cfg_generated.o64)
 *fill*         0x000000000001453f        0x1 
 .text          0x0000000000014540      0x159 C:\Users\MURTI\AppData\Local\Temp\dSPACE\CfgDesk\AppCache\3\Build\EXP_03\Compile\BMS_12777_1\BMS_12777_1.a(PduR_generated.o64)
                0x0000000000014540                BM_BUS_CONFIGURATION_i1_i12777_1_BMS_PduR_GetVersionInfo
                0x0000000000014560                BM_BUS_CONFIGURATION_i1_i12777_1_BMS_PduR_Init
                0x0000000000014570                BM_BUS_CONFIGURATION_i1_i12777_1_BMS_PduR_VariableInitialize
                0x0000000000014580                BM_BUS_CONFIGURATION_i1_i12777_1_BMS_PduR_ComTransmit
                0x0000000000014620                BM_BUS_CONFIGURATION_i1_i12777_1_BMS_PduR_CanIfTxConfirmation
                0x0000000000014660                BM_BUS_CONFIGURATION_i1_i12777_1_BMS_PduR_CanIfRxIndication
 *fill*         0x0000000000014699        0x7 
 .text          0x00000000000146a0       0x42 C:\Users\MURTI\AppData\Local\Temp\dSPACE\CfgDesk\AppCache\3\Build\EXP_03\Compile\BMS_12777_1\BMS_12777_1.a(SchM_CanIf.o64)
                0x00000000000146a0                BM_BUS_CONFIGURATION_i1_i12777_1_BMS_SchM_Enter_CanIf
                0x00000000000146c0                BM_BUS_CONFIGURATION_i1_i12777_1_BMS_SchM_Exit_CanIf
 *fill*         0x00000000000146e2        0xe 
 .text          0x00000000000146f0     0x1441 C:\Users\MURTI\AppData\Local\Temp\dSPACE\CfgDesk\AppCache\3\Build\EXP_03\Compile\IPC_12777_1\IPC_12777_1.a(CanIf.o64)
                0x00000000000146f0                BM_BUS_CONFIGURATION_i1_i12777_1_IPC_CanIf_CheckTrcvWakeFlagIndication
                0x00000000000148a0                BM_BUS_CONFIGURATION_i1_i12777_1_IPC_CanIf_TxConfirmation
                0x00000000000149c0                BM_BUS_CONFIGURATION_i1_i12777_1_IPC_CanIf_InitController
                0x0000000000014d40                BM_BUS_CONFIGURATION_i1_i12777_1_IPC_CanIf_SetControllerMode
                0x0000000000014e80                BM_BUS_CONFIGURATION_i1_i12777_1_IPC_CanIf_InitFunction
                0x0000000000015180                BM_BUS_CONFIGURATION_i1_i12777_1_IPC_CanIf_GetControllerMode
                0x00000000000151d0                BM_BUS_CONFIGURATION_i1_i12777_1_IPC_CanIf_Transmit
                0x0000000000015200                BM_BUS_CONFIGURATION_i1_i12777_1_IPC_CanIf_TransmitFunction
                0x00000000000154d0                BM_BUS_CONFIGURATION_i1_i12777_1_IPC_CanIf_ReadRxPduData
                0x00000000000155b0                BM_BUS_CONFIGURATION_i1_i12777_1_IPC_CanIf_ReadTxNotifStatus
                0x00000000000155e0                BM_BUS_CONFIGURATION_i1_i12777_1_IPC_CanIf_ReadRxNotifStatus
                0x0000000000015610                BM_BUS_CONFIGURATION_i1_i12777_1_IPC_CanIf_SetPduMode
                0x00000000000156e0                BM_BUS_CONFIGURATION_i1_i12777_1_IPC_CanIf_GetPduMode
                0x0000000000015740                BM_BUS_CONFIGURATION_i1_i12777_1_IPC_CanIf_GetVersionInfo
                0x0000000000015770                BM_BUS_CONFIGURATION_i1_i12777_1_IPC_CanIf_SetDynamicTxId
                0x00000000000157d0                BM_BUS_CONFIGURATION_i1_i12777_1_IPC_CanIf_SetTransceiverMode
                0x00000000000157e0                BM_BUS_CONFIGURATION_i1_i12777_1_IPC_CanIf_GetTransceiverMode
                0x00000000000157f0                BM_BUS_CONFIGURATION_i1_i12777_1_IPC_CanIf_GetTrcvWakeupReason
                0x0000000000015800                BM_BUS_CONFIGURATION_i1_i12777_1_IPC_CanIf_SetTransceiverWakeupMode
                0x0000000000015810                BM_BUS_CONFIGURATION_i1_i12777_1_IPC_CanIf_CheckWakeup
                0x0000000000015850                BM_BUS_CONFIGURATION_i1_i12777_1_IPC_CanIf_CheckValidation
                0x00000000000158a0                BM_BUS_CONFIGURATION_i1_i12777_1_IPC_CanIf_GetTxConfirmationState
                0x00000000000158d0                BM_BUS_CONFIGURATION_i1_i12777_1_IPC_CanIf_ClearTrcvWufFlag
                0x00000000000158e0                BM_BUS_CONFIGURATION_i1_i12777_1_IPC_CanIf_CheckTrcvWakeFlag
                0x00000000000158f0                BM_BUS_CONFIGURATION_i1_i12777_1_IPC_CanIf_RxIndication
                0x00000000000159f0                BM_BUS_CONFIGURATION_i1_i12777_1_IPC_CanIf_RxInterruptIndication
                0x0000000000015a90                BM_BUS_CONFIGURATION_i1_i12777_1_IPC_CanIf_CancelTxConfirmation
                0x0000000000015aa0                BM_BUS_CONFIGURATION_i1_i12777_1_IPC_CanIf_ControllerBusOff
                0x0000000000015b10                BM_BUS_CONFIGURATION_i1_i12777_1_IPC_CanIf_ConfirmPnAvailability
                0x0000000000015b20                BM_BUS_CONFIGURATION_i1_i12777_1_IPC_CanIf_ClearTrcvWufFlagIndication
                0x0000000000015b30                BM_BUS_CONFIGURATION_i1_i12777_1_IPC_CanIf_TrcvModeIndication
 *fill*         0x0000000000015b31        0xf 
 .text          0x0000000000015b40       0xcc C:\Users\MURTI\AppData\Local\Temp\dSPACE\CfgDesk\AppCache\3\Build\EXP_03\Compile\IPC_12777_1\IPC_12777_1.a(CanIf_Cfg.o64)
                0x0000000000015b40                BM_BUS_CONFIGURATION_i1_i12777_1_IPC_CanIf_InitDefaultConfig
                0x0000000000015b90                BM_BUS_CONFIGURATION_i1_i12777_1_IPC_CanIf_Init
                0x0000000000015ba0                BM_BUS_CONFIGURATION_i1_i12777_1_IPC_CanIf_VariableInitialize
 .text          0x0000000000015c0c        0x0 C:\Users\MURTI\AppData\Local\Temp\dSPACE\CfgDesk\AppCache\3\Build\EXP_03\Compile\IPC_12777_1\IPC_12777_1.a(CanIf_Cfg_BusAccess.o64)
 *fill*         0x0000000000015c0c        0x4 
 .text          0x0000000000015c10     0x1286 C:\Users\MURTI\AppData\Local\Temp\dSPACE\CfgDesk\AppCache\3\Build\EXP_03\Compile\IPC_12777_1\IPC_12777_1.a(Rte_generated.o64)
                0x0000000000015c10                BM_BUS_CONFIGURATION_i1_i12777_1_IPC_Rte_SetPhysicalValue
                0x0000000000016800                BM_BUS_CONFIGURATION_i1_i12777_1_IPC_Rte_VariableInitialize
                0x0000000000016e30                BM_BUS_CONFIGURATION_i1_i12777_1_IPC_Rte_SetPhysicalEvent
                0x0000000000016e40                BM_BUS_CONFIGURATION_i1_i12777_1_IPC_Rte_SetCodedValue
                0x0000000000016e50                BM_BUS_CONFIGURATION_i1_i12777_1_IPC_Rte_SetCodedEvent
                0x0000000000016e60                BM_BUS_CONFIGURATION_i1_i12777_1_IPC_Rte_GetMethodInArguments
                0x0000000000016e70                BM_BUS_CONFIGURATION_i1_i12777_1_IPC_Rte_SetMethodOutArguments
                0x0000000000016e80                BM_BUS_CONFIGURATION_i1_i12777_1_IPC_Rte_WriteSignal
                0x0000000000016e90                BM_BUS_CONFIGURATION_i1_i12777_1_IPC_Rte_ReadSignal
 *fill*         0x0000000000016e96        0xa 
 .text          0x0000000000016ea0       0x7a C:\Users\MURTI\AppData\Local\Temp\dSPACE\CfgDesk\AppCache\3\Build\EXP_03\Compile\IPC_12777_1\IPC_12777_1.a(Com_generated.o64)
                0x0000000000016ea0                BM_BUS_CONFIGURATION_i1_i12777_1_IPC_Com_Init
                0x0000000000016ed0                BM_BUS_CONFIGURATION_i1_i12777_1_IPC_Com_DeInit
                0x0000000000016ee0                BM_BUS_CONFIGURATION_i1_i12777_1_IPC_Com_VariableInitialize
                0x0000000000016f00                BM_BUS_CONFIGURATION_i1_i12777_1_IPC_Com_OnStart
                0x0000000000016f10                BM_BUS_CONFIGURATION_i1_i12777_1_IPC_Com_GetStatus
 *fill*         0x0000000000016f1a        0x6 
 .text          0x0000000000016f20       0xc1 C:\Users\MURTI\AppData\Local\Temp\dSPACE\CfgDesk\AppCache\3\Build\EXP_03\Compile\IPC_12777_1\IPC_12777_1.a(Com_Tx_generated.o64)
                0x0000000000016f20                BM_BUS_CONFIGURATION_i1_i12777_1_IPC_Com_Tx_Init
                0x0000000000016f30                BM_BUS_CONFIGURATION_i1_i12777_1_IPC_Com_Tx_VariableInitialize
                0x0000000000016f40                BM_BUS_CONFIGURATION_i1_i12777_1_IPC_Com_TriggerIPDUSend
                0x0000000000016f50                BM_BUS_CONFIGURATION_i1_i12777_1_IPC_Com_TriggerTransmit
                0x0000000000016f60                BM_BUS_CONFIGURATION_i1_i12777_1_IPC_Com_TriggerIPDU
                0x0000000000016f70                BM_BUS_CONFIGURATION_i1_i12777_1_IPC_Com_SendSignal
                0x0000000000016f80                BM_BUS_CONFIGURATION_i1_i12777_1_IPC_Com_SendSignalGroup
                0x0000000000016f90                BM_BUS_CONFIGURATION_i1_i12777_1_IPC_Com_UpdateShadowSignal
                0x0000000000016fa0                BM_BUS_CONFIGURATION_i1_i12777_1_IPC_Com_InvalidateSignal
                0x0000000000016fb0                BM_BUS_CONFIGURATION_i1_i12777_1_IPC_Com_InvalidateShadowSignal
                0x0000000000016fc0                BM_BUS_CONFIGURATION_i1_i12777_1_IPC_Com_InvalidateSignalGroup
                0x0000000000016fd0                BM_BUS_CONFIGURATION_i1_i12777_1_IPC_Com_PduEnabledSendCheck
                0x0000000000016fe0                BM_BUS_CONFIGURATION_i1_i12777_1_IPC_Com_TxConfirmation
 *fill*         0x0000000000016fe1        0xf 
 .text          0x0000000000016ff0      0xf64 C:\Users\MURTI\AppData\Local\Temp\dSPACE\CfgDesk\AppCache\3\Build\EXP_03\Compile\IPC_12777_1\IPC_12777_1.a(Com_Rx_generated.o64)
                0x0000000000016ff0                BM_BUS_CONFIGURATION_i1_i12777_1_IPC_Com_Rx_Init
                0x00000000000170a0                BM_BUS_CONFIGURATION_i1_i12777_1_IPC_Com_Rx_VariableInitialize
                0x00000000000170e0                BM_BUS_CONFIGURATION_i1_i12777_1_IPC_Com_ReceiveSignal
                0x00000000000174c0                BM_BUS_CONFIGURATION_i1_i12777_1_IPC_Com_ReceiveSignalGroup
                0x00000000000174d0                BM_BUS_CONFIGURATION_i1_i12777_1_IPC_Com_ReceiveShadowSignal
                0x00000000000174e0                BM_BUS_CONFIGURATION_i1_i12777_1_IPC_Com_RxIndication
 .text          0x0000000000017f54        0x0 C:\Users\MURTI\AppData\Local\Temp\dSPACE\CfgDesk\AppCache\3\Build\EXP_03\Compile\IPC_12777_1\IPC_12777_1.a(PduR_Cfg_generated.o64)
 *fill*         0x0000000000017f54        0xc 
 .text          0x0000000000017f60      0x159 C:\Users\MURTI\AppData\Local\Temp\dSPACE\CfgDesk\AppCache\3\Build\EXP_03\Compile\IPC_12777_1\IPC_12777_1.a(PduR_generated.o64)
                0x0000000000017f60                BM_BUS_CONFIGURATION_i1_i12777_1_IPC_PduR_GetVersionInfo
                0x0000000000017f80                BM_BUS_CONFIGURATION_i1_i12777_1_IPC_PduR_Init
                0x0000000000017f90                BM_BUS_CONFIGURATION_i1_i12777_1_IPC_PduR_VariableInitialize
                0x0000000000017fa0                BM_BUS_CONFIGURATION_i1_i12777_1_IPC_PduR_ComTransmit
                0x0000000000018040                BM_BUS_CONFIGURATION_i1_i12777_1_IPC_PduR_CanIfTxConfirmation
                0x0000000000018080                BM_BUS_CONFIGURATION_i1_i12777_1_IPC_PduR_CanIfRxIndication
 *fill*         0x00000000000180b9        0x7 
 .text          0x00000000000180c0       0x42 C:\Users\MURTI\AppData\Local\Temp\dSPACE\CfgDesk\AppCache\3\Build\EXP_03\Compile\IPC_12777_1\IPC_12777_1.a(SchM_CanIf.o64)
                0x00000000000180c0                BM_BUS_CONFIGURATION_i1_i12777_1_IPC_SchM_Enter_CanIf
                0x00000000000180e0                BM_BUS_CONFIGURATION_i1_i12777_1_IPC_SchM_Exit_CanIf
 *fill*         0x0000000000018102        0xe 
 .text          0x0000000000018110     0x1441 C:\Users\MURTI\AppData\Local\Temp\dSPACE\CfgDesk\AppCache\3\Build\EXP_03\Compile\TCU_12777_1\TCU_12777_1.a(CanIf.o64)
                0x0000000000018110                BM_BUS_CONFIGURATION_i1_i12777_1_TCU_CanIf_CheckTrcvWakeFlagIndication
                0x00000000000182c0                BM_BUS_CONFIGURATION_i1_i12777_1_TCU_CanIf_TxConfirmation
                0x00000000000183e0                BM_BUS_CONFIGURATION_i1_i12777_1_TCU_CanIf_InitController
                0x0000000000018760                BM_BUS_CONFIGURATION_i1_i12777_1_TCU_CanIf_SetControllerMode
                0x00000000000188a0                BM_BUS_CONFIGURATION_i1_i12777_1_TCU_CanIf_InitFunction
                0x0000000000018ba0                BM_BUS_CONFIGURATION_i1_i12777_1_TCU_CanIf_GetControllerMode
                0x0000000000018bf0                BM_BUS_CONFIGURATION_i1_i12777_1_TCU_CanIf_Transmit
                0x0000000000018c20                BM_BUS_CONFIGURATION_i1_i12777_1_TCU_CanIf_TransmitFunction
                0x0000000000018ef0                BM_BUS_CONFIGURATION_i1_i12777_1_TCU_CanIf_ReadRxPduData
                0x0000000000018fd0                BM_BUS_CONFIGURATION_i1_i12777_1_TCU_CanIf_ReadTxNotifStatus
                0x0000000000019000                BM_BUS_CONFIGURATION_i1_i12777_1_TCU_CanIf_ReadRxNotifStatus
                0x0000000000019030                BM_BUS_CONFIGURATION_i1_i12777_1_TCU_CanIf_SetPduMode
                0x0000000000019100                BM_BUS_CONFIGURATION_i1_i12777_1_TCU_CanIf_GetPduMode
                0x0000000000019160                BM_BUS_CONFIGURATION_i1_i12777_1_TCU_CanIf_GetVersionInfo
                0x0000000000019190                BM_BUS_CONFIGURATION_i1_i12777_1_TCU_CanIf_SetDynamicTxId
                0x00000000000191f0                BM_BUS_CONFIGURATION_i1_i12777_1_TCU_CanIf_SetTransceiverMode
                0x0000000000019200                BM_BUS_CONFIGURATION_i1_i12777_1_TCU_CanIf_GetTransceiverMode
                0x0000000000019210                BM_BUS_CONFIGURATION_i1_i12777_1_TCU_CanIf_GetTrcvWakeupReason
                0x0000000000019220                BM_BUS_CONFIGURATION_i1_i12777_1_TCU_CanIf_SetTransceiverWakeupMode
                0x0000000000019230                BM_BUS_CONFIGURATION_i1_i12777_1_TCU_CanIf_CheckWakeup
                0x0000000000019270                BM_BUS_CONFIGURATION_i1_i12777_1_TCU_CanIf_CheckValidation
                0x00000000000192c0                BM_BUS_CONFIGURATION_i1_i12777_1_TCU_CanIf_GetTxConfirmationState
                0x00000000000192f0                BM_BUS_CONFIGURATION_i1_i12777_1_TCU_CanIf_ClearTrcvWufFlag
                0x0000000000019300                BM_BUS_CONFIGURATION_i1_i12777_1_TCU_CanIf_CheckTrcvWakeFlag
                0x0000000000019310                BM_BUS_CONFIGURATION_i1_i12777_1_TCU_CanIf_RxIndication
                0x0000000000019410                BM_BUS_CONFIGURATION_i1_i12777_1_TCU_CanIf_RxInterruptIndication
                0x00000000000194b0                BM_BUS_CONFIGURATION_i1_i12777_1_TCU_CanIf_CancelTxConfirmation
                0x00000000000194c0                BM_BUS_CONFIGURATION_i1_i12777_1_TCU_CanIf_ControllerBusOff
                0x0000000000019530                BM_BUS_CONFIGURATION_i1_i12777_1_TCU_CanIf_ConfirmPnAvailability
                0x0000000000019540                BM_BUS_CONFIGURATION_i1_i12777_1_TCU_CanIf_ClearTrcvWufFlagIndication
                0x0000000000019550                BM_BUS_CONFIGURATION_i1_i12777_1_TCU_CanIf_TrcvModeIndication
 *fill*         0x0000000000019551        0xf 
 .text          0x0000000000019560      0x15e C:\Users\MURTI\AppData\Local\Temp\dSPACE\CfgDesk\AppCache\3\Build\EXP_03\Compile\TCU_12777_1\TCU_12777_1.a(CanIf_Cfg.o64)
                0x0000000000019560                BM_BUS_CONFIGURATION_i1_i12777_1_TCU_CanIf_InitDefaultConfig
                0x00000000000195b0                BM_BUS_CONFIGURATION_i1_i12777_1_TCU_CanIf_Init
                0x00000000000195c0                BM_BUS_CONFIGURATION_i1_i12777_1_TCU_CanIf_VariableInitialize
 .text          0x00000000000196be        0x0 C:\Users\MURTI\AppData\Local\Temp\dSPACE\CfgDesk\AppCache\3\Build\EXP_03\Compile\TCU_12777_1\TCU_12777_1.a(CanIf_Cfg_BusAccess.o64)
 *fill*         0x00000000000196be        0x2 
 .text          0x00000000000196c0     0x2c76 C:\Users\MURTI\AppData\Local\Temp\dSPACE\CfgDesk\AppCache\3\Build\EXP_03\Compile\TCU_12777_1\TCU_12777_1.a(Rte_generated.o64)
                0x00000000000196c0                BM_BUS_CONFIGURATION_i1_i12777_1_TCU_Rte_SetPhysicalValue
                0x00000000000197f0                BM_BUS_CONFIGURATION_i1_i12777_1_TCU_Rte_SetPhysicalEvent
                0x0000000000019800                BM_BUS_CONFIGURATION_i1_i12777_1_TCU_Rte_SetCodedValue
                0x000000000001b610                BM_BUS_CONFIGURATION_i1_i12777_1_TCU_Rte_VariableInitialize
                0x000000000001c2f0                BM_BUS_CONFIGURATION_i1_i12777_1_TCU_Rte_SetCodedEvent
                0x000000000001c300                BM_BUS_CONFIGURATION_i1_i12777_1_TCU_Rte_GetMethodInArguments
                0x000000000001c310                BM_BUS_CONFIGURATION_i1_i12777_1_TCU_Rte_SetMethodOutArguments
                0x000000000001c320                BM_BUS_CONFIGURATION_i1_i12777_1_TCU_Rte_WriteSignal
                0x000000000001c330                BM_BUS_CONFIGURATION_i1_i12777_1_TCU_Rte_ReadSignal
 *fill*         0x000000000001c336        0xa 
 .text          0x000000000001c340       0x7a C:\Users\MURTI\AppData\Local\Temp\dSPACE\CfgDesk\AppCache\3\Build\EXP_03\Compile\TCU_12777_1\TCU_12777_1.a(Com_generated.o64)
                0x000000000001c340                BM_BUS_CONFIGURATION_i1_i12777_1_TCU_Com_Init
                0x000000000001c370                BM_BUS_CONFIGURATION_i1_i12777_1_TCU_Com_DeInit
                0x000000000001c380                BM_BUS_CONFIGURATION_i1_i12777_1_TCU_Com_VariableInitialize
                0x000000000001c3a0                BM_BUS_CONFIGURATION_i1_i12777_1_TCU_Com_OnStart
                0x000000000001c3b0                BM_BUS_CONFIGURATION_i1_i12777_1_TCU_Com_GetStatus
 *fill*         0x000000000001c3ba        0x6 
 .text          0x000000000001c3c0     0x2971 C:\Users\MURTI\AppData\Local\Temp\dSPACE\CfgDesk\AppCache\3\Build\EXP_03\Compile\TCU_12777_1\TCU_12777_1.a(Com_Tx_generated.o64)
                0x000000000001c3c0                BM_BUS_CONFIGURATION_i1_i12777_1_TCU_Com_Tx_Init
                0x000000000001c4a0                BM_BUS_CONFIGURATION_i1_i12777_1_TCU_Com_Tx_VariableInitialize
                0x000000000001ccd0                BM_BUS_CONFIGURATION_i1_i12777_1_TCU_Com_TriggerIPDUSend
                0x000000000001da20                BM_BUS_CONFIGURATION_i1_i12777_1_TCU_Com_TriggerTransmit
                0x000000000001e7e0                BM_BUS_CONFIGURATION_i1_i12777_1_TCU_Com_TriggerIPDU
                0x000000000001e870                BM_BUS_CONFIGURATION_i1_i12777_1_TCU_Com_SendSignal
                0x000000000001ecd0                BM_BUS_CONFIGURATION_i1_i12777_1_TCU_Com_SendSignalGroup
                0x000000000001ece0                BM_BUS_CONFIGURATION_i1_i12777_1_TCU_Com_UpdateShadowSignal
                0x000000000001ecf0                BM_BUS_CONFIGURATION_i1_i12777_1_TCU_Com_InvalidateSignal
                0x000000000001ed00                BM_BUS_CONFIGURATION_i1_i12777_1_TCU_Com_InvalidateShadowSignal
                0x000000000001ed10                BM_BUS_CONFIGURATION_i1_i12777_1_TCU_Com_InvalidateSignalGroup
                0x000000000001ed20                BM_BUS_CONFIGURATION_i1_i12777_1_TCU_Com_PduEnabledSendCheck
                0x000000000001ed30                BM_BUS_CONFIGURATION_i1_i12777_1_TCU_Com_TxConfirmation
 *fill*         0x000000000001ed31        0xf 
 .text          0x000000000001ed40      0x199 C:\Users\MURTI\AppData\Local\Temp\dSPACE\CfgDesk\AppCache\3\Build\EXP_03\Compile\TCU_12777_1\TCU_12777_1.a(Com_Rx_generated.o64)
                0x000000000001ed40                BM_BUS_CONFIGURATION_i1_i12777_1_TCU_Com_Rx_Init
                0x000000000001ed70                BM_BUS_CONFIGURATION_i1_i12777_1_TCU_Com_Rx_VariableInitialize
                0x000000000001ed80                BM_BUS_CONFIGURATION_i1_i12777_1_TCU_Com_ReceiveSignal
                0x000000000001ede0                BM_BUS_CONFIGURATION_i1_i12777_1_TCU_Com_ReceiveSignalGroup
                0x000000000001edf0                BM_BUS_CONFIGURATION_i1_i12777_1_TCU_Com_ReceiveShadowSignal
                0x000000000001ee00                BM_BUS_CONFIGURATION_i1_i12777_1_TCU_Com_RxIndication
 .text          0x000000000001eed9        0x0 C:\Users\MURTI\AppData\Local\Temp\dSPACE\CfgDesk\AppCache\3\Build\EXP_03\Compile\TCU_12777_1\TCU_12777_1.a(PduR_Cfg_generated.o64)
 *fill*         0x000000000001eed9        0x7 
 .text          0x000000000001eee0      0x159 C:\Users\MURTI\AppData\Local\Temp\dSPACE\CfgDesk\AppCache\3\Build\EXP_03\Compile\TCU_12777_1\TCU_12777_1.a(PduR_generated.o64)
                0x000000000001eee0                BM_BUS_CONFIGURATION_i1_i12777_1_TCU_PduR_GetVersionInfo
                0x000000000001ef00                BM_BUS_CONFIGURATION_i1_i12777_1_TCU_PduR_Init
                0x000000000001ef10                BM_BUS_CONFIGURATION_i1_i12777_1_TCU_PduR_VariableInitialize
                0x000000000001ef20                BM_BUS_CONFIGURATION_i1_i12777_1_TCU_PduR_ComTransmit
                0x000000000001efc0                BM_BUS_CONFIGURATION_i1_i12777_1_TCU_PduR_CanIfTxConfirmation
                0x000000000001f000                BM_BUS_CONFIGURATION_i1_i12777_1_TCU_PduR_CanIfRxIndication
 *fill*         0x000000000001f039        0x7 
 .text          0x000000000001f040       0x42 C:\Users\MURTI\AppData\Local\Temp\dSPACE\CfgDesk\AppCache\3\Build\EXP_03\Compile\TCU_12777_1\TCU_12777_1.a(SchM_CanIf.o64)
                0x000000000001f040                BM_BUS_CONFIGURATION_i1_i12777_1_TCU_SchM_Enter_CanIf
                0x000000000001f060                BM_BUS_CONFIGURATION_i1_i12777_1_TCU_SchM_Exit_CanIf
 *fill*         0x000000000001f082        0xe 
 .text          0x000000000001f090     0x1441 C:\Users\MURTI\AppData\Local\Temp\dSPACE\CfgDesk\AppCache\3\Build\EXP_03\Compile\Telematics_12777_1\Telematics_12777_1.a(CanIf.o64)
                0x000000000001f090                BM_BUS_CONFIGURATION_i1_i12777_1_TELEMATICS_CanIf_CheckTrcvWakeFlagIndication
                0x000000000001f240                BM_BUS_CONFIGURATION_i1_i12777_1_TELEMATICS_CanIf_TxConfirmation
                0x000000000001f360                BM_BUS_CONFIGURATION_i1_i12777_1_TELEMATICS_CanIf_InitController
                0x000000000001f6e0                BM_BUS_CONFIGURATION_i1_i12777_1_TELEMATICS_CanIf_SetControllerMode
                0x000000000001f820                BM_BUS_CONFIGURATION_i1_i12777_1_TELEMATICS_CanIf_InitFunction
                0x000000000001fb20                BM_BUS_CONFIGURATION_i1_i12777_1_TELEMATICS_CanIf_GetControllerMode
                0x000000000001fb70                BM_BUS_CONFIGURATION_i1_i12777_1_TELEMATICS_CanIf_Transmit
                0x000000000001fba0                BM_BUS_CONFIGURATION_i1_i12777_1_TELEMATICS_CanIf_TransmitFunction
                0x000000000001fe70                BM_BUS_CONFIGURATION_i1_i12777_1_TELEMATICS_CanIf_ReadRxPduData
                0x000000000001ff50                BM_BUS_CONFIGURATION_i1_i12777_1_TELEMATICS_CanIf_ReadTxNotifStatus
                0x000000000001ff80                BM_BUS_CONFIGURATION_i1_i12777_1_TELEMATICS_CanIf_ReadRxNotifStatus
                0x000000000001ffb0                BM_BUS_CONFIGURATION_i1_i12777_1_TELEMATICS_CanIf_SetPduMode
                0x0000000000020080                BM_BUS_CONFIGURATION_i1_i12777_1_TELEMATICS_CanIf_GetPduMode
                0x00000000000200e0                BM_BUS_CONFIGURATION_i1_i12777_1_TELEMATICS_CanIf_GetVersionInfo
                0x0000000000020110                BM_BUS_CONFIGURATION_i1_i12777_1_TELEMATICS_CanIf_SetDynamicTxId
                0x0000000000020170                BM_BUS_CONFIGURATION_i1_i12777_1_TELEMATICS_CanIf_SetTransceiverMode
                0x0000000000020180                BM_BUS_CONFIGURATION_i1_i12777_1_TELEMATICS_CanIf_GetTransceiverMode
                0x0000000000020190                BM_BUS_CONFIGURATION_i1_i12777_1_TELEMATICS_CanIf_GetTrcvWakeupReason
                0x00000000000201a0                BM_BUS_CONFIGURATION_i1_i12777_1_TELEMATICS_CanIf_SetTransceiverWakeupMode
                0x00000000000201b0                BM_BUS_CONFIGURATION_i1_i12777_1_TELEMATICS_CanIf_CheckWakeup
                0x00000000000201f0                BM_BUS_CONFIGURATION_i1_i12777_1_TELEMATICS_CanIf_CheckValidation
                0x0000000000020240                BM_BUS_CONFIGURATION_i1_i12777_1_TELEMATICS_CanIf_GetTxConfirmationState
                0x0000000000020270                BM_BUS_CONFIGURATION_i1_i12777_1_TELEMATICS_CanIf_ClearTrcvWufFlag
                0x0000000000020280                BM_BUS_CONFIGURATION_i1_i12777_1_TELEMATICS_CanIf_CheckTrcvWakeFlag
                0x0000000000020290                BM_BUS_CONFIGURATION_i1_i12777_1_TELEMATICS_CanIf_RxIndication
                0x0000000000020390                BM_BUS_CONFIGURATION_i1_i12777_1_TELEMATICS_CanIf_RxInterruptIndication
                0x0000000000020430                BM_BUS_CONFIGURATION_i1_i12777_1_TELEMATICS_CanIf_CancelTxConfirmation
                0x0000000000020440                BM_BUS_CONFIGURATION_i1_i12777_1_TELEMATICS_CanIf_ControllerBusOff
                0x00000000000204b0                BM_BUS_CONFIGURATION_i1_i12777_1_TELEMATICS_CanIf_ConfirmPnAvailability
                0x00000000000204c0                BM_BUS_CONFIGURATION_i1_i12777_1_TELEMATICS_CanIf_ClearTrcvWufFlagIndication
                0x00000000000204d0                BM_BUS_CONFIGURATION_i1_i12777_1_TELEMATICS_CanIf_TrcvModeIndication
 *fill*         0x00000000000204d1        0xf 
 .text          0x00000000000204e0       0xcc C:\Users\MURTI\AppData\Local\Temp\dSPACE\CfgDesk\AppCache\3\Build\EXP_03\Compile\Telematics_12777_1\Telematics_12777_1.a(CanIf_Cfg.o64)
                0x00000000000204e0                BM_BUS_CONFIGURATION_i1_i12777_1_TELEMATICS_CanIf_InitDefaultConfig
                0x0000000000020530                BM_BUS_CONFIGURATION_i1_i12777_1_TELEMATICS_CanIf_Init
                0x0000000000020540                BM_BUS_CONFIGURATION_i1_i12777_1_TELEMATICS_CanIf_VariableInitialize
 .text          0x00000000000205ac        0x0 C:\Users\MURTI\AppData\Local\Temp\dSPACE\CfgDesk\AppCache\3\Build\EXP_03\Compile\Telematics_12777_1\Telematics_12777_1.a(CanIf_Cfg_BusAccess.o64)
 *fill*         0x00000000000205ac        0x4 
 .text          0x00000000000205b0     0x1526 C:\Users\MURTI\AppData\Local\Temp\dSPACE\CfgDesk\AppCache\3\Build\EXP_03\Compile\Telematics_12777_1\Telematics_12777_1.a(Rte_generated.o64)
                0x00000000000205b0                BM_BUS_CONFIGURATION_i1_i12777_1_TELEMATICS_Rte_SetPhysicalValue
                0x0000000000021380                BM_BUS_CONFIGURATION_i1_i12777_1_TELEMATICS_Rte_VariableInitialize
                0x0000000000021a70                BM_BUS_CONFIGURATION_i1_i12777_1_TELEMATICS_Rte_SetPhysicalEvent
                0x0000000000021a80                BM_BUS_CONFIGURATION_i1_i12777_1_TELEMATICS_Rte_SetCodedValue
                0x0000000000021a90                BM_BUS_CONFIGURATION_i1_i12777_1_TELEMATICS_Rte_SetCodedEvent
                0x0000000000021aa0                BM_BUS_CONFIGURATION_i1_i12777_1_TELEMATICS_Rte_GetMethodInArguments
                0x0000000000021ab0                BM_BUS_CONFIGURATION_i1_i12777_1_TELEMATICS_Rte_SetMethodOutArguments
                0x0000000000021ac0                BM_BUS_CONFIGURATION_i1_i12777_1_TELEMATICS_Rte_WriteSignal
                0x0000000000021ad0                BM_BUS_CONFIGURATION_i1_i12777_1_TELEMATICS_Rte_ReadSignal
 *fill*         0x0000000000021ad6        0xa 
 .text          0x0000000000021ae0       0x7a C:\Users\MURTI\AppData\Local\Temp\dSPACE\CfgDesk\AppCache\3\Build\EXP_03\Compile\Telematics_12777_1\Telematics_12777_1.a(Com_generated.o64)
                0x0000000000021ae0                BM_BUS_CONFIGURATION_i1_i12777_1_TELEMATICS_Com_Init
                0x0000000000021b10                BM_BUS_CONFIGURATION_i1_i12777_1_TELEMATICS_Com_DeInit
                0x0000000000021b20                BM_BUS_CONFIGURATION_i1_i12777_1_TELEMATICS_Com_VariableInitialize
                0x0000000000021b40                BM_BUS_CONFIGURATION_i1_i12777_1_TELEMATICS_Com_OnStart
                0x0000000000021b50                BM_BUS_CONFIGURATION_i1_i12777_1_TELEMATICS_Com_GetStatus
 *fill*         0x0000000000021b5a        0x6 
 .text          0x0000000000021b60       0xc1 C:\Users\MURTI\AppData\Local\Temp\dSPACE\CfgDesk\AppCache\3\Build\EXP_03\Compile\Telematics_12777_1\Telematics_12777_1.a(Com_Tx_generated.o64)
                0x0000000000021b60                BM_BUS_CONFIGURATION_i1_i12777_1_TELEMATICS_Com_Tx_Init
                0x0000000000021b70                BM_BUS_CONFIGURATION_i1_i12777_1_TELEMATICS_Com_Tx_VariableInitialize
                0x0000000000021b80                BM_BUS_CONFIGURATION_i1_i12777_1_TELEMATICS_Com_TriggerIPDUSend
                0x0000000000021b90                BM_BUS_CONFIGURATION_i1_i12777_1_TELEMATICS_Com_TriggerTransmit
                0x0000000000021ba0                BM_BUS_CONFIGURATION_i1_i12777_1_TELEMATICS_Com_TriggerIPDU
                0x0000000000021bb0                BM_BUS_CONFIGURATION_i1_i12777_1_TELEMATICS_Com_SendSignal
                0x0000000000021bc0                BM_BUS_CONFIGURATION_i1_i12777_1_TELEMATICS_Com_SendSignalGroup
                0x0000000000021bd0                BM_BUS_CONFIGURATION_i1_i12777_1_TELEMATICS_Com_UpdateShadowSignal
                0x0000000000021be0                BM_BUS_CONFIGURATION_i1_i12777_1_TELEMATICS_Com_InvalidateSignal
                0x0000000000021bf0                BM_BUS_CONFIGURATION_i1_i12777_1_TELEMATICS_Com_InvalidateShadowSignal
                0x0000000000021c00                BM_BUS_CONFIGURATION_i1_i12777_1_TELEMATICS_Com_InvalidateSignalGroup
                0x0000000000021c10                BM_BUS_CONFIGURATION_i1_i12777_1_TELEMATICS_Com_PduEnabledSendCheck
                0x0000000000021c20                BM_BUS_CONFIGURATION_i1_i12777_1_TELEMATICS_Com_TxConfirmation
 *fill*         0x0000000000021c21        0xf 
 .text          0x0000000000021c30     0x11d4 C:\Users\MURTI\AppData\Local\Temp\dSPACE\CfgDesk\AppCache\3\Build\EXP_03\Compile\Telematics_12777_1\Telematics_12777_1.a(Com_Rx_generated.o64)
                0x0000000000021c30                BM_BUS_CONFIGURATION_i1_i12777_1_TELEMATICS_Com_Rx_Init
                0x0000000000021d30                BM_BUS_CONFIGURATION_i1_i12777_1_TELEMATICS_Com_Rx_VariableInitialize
                0x0000000000021d90                BM_BUS_CONFIGURATION_i1_i12777_1_TELEMATICS_Com_ReceiveSignal
                0x00000000000221e0                BM_BUS_CONFIGURATION_i1_i12777_1_TELEMATICS_Com_ReceiveSignalGroup
                0x00000000000221f0                BM_BUS_CONFIGURATION_i1_i12777_1_TELEMATICS_Com_ReceiveShadowSignal
                0x0000000000022200                BM_BUS_CONFIGURATION_i1_i12777_1_TELEMATICS_Com_RxIndication
 .text          0x0000000000022e04        0x0 C:\Users\MURTI\AppData\Local\Temp\dSPACE\CfgDesk\AppCache\3\Build\EXP_03\Compile\Telematics_12777_1\Telematics_12777_1.a(PduR_Cfg_generated.o64)
 *fill*         0x0000000000022e04        0xc 
 .text          0x0000000000022e10      0x159 C:\Users\MURTI\AppData\Local\Temp\dSPACE\CfgDesk\AppCache\3\Build\EXP_03\Compile\Telematics_12777_1\Telematics_12777_1.a(PduR_generated.o64)
                0x0000000000022e10                BM_BUS_CONFIGURATION_i1_i12777_1_TELEMATICS_PduR_GetVersionInfo
                0x0000000000022e30                BM_BUS_CONFIGURATION_i1_i12777_1_TELEMATICS_PduR_Init
                0x0000000000022e40                BM_BUS_CONFIGURATION_i1_i12777_1_TELEMATICS_PduR_VariableInitialize
                0x0000000000022e50                BM_BUS_CONFIGURATION_i1_i12777_1_TELEMATICS_PduR_ComTransmit
                0x0000000000022ef0                BM_BUS_CONFIGURATION_i1_i12777_1_TELEMATICS_PduR_CanIfTxConfirmation
                0x0000000000022f30                BM_BUS_CONFIGURATION_i1_i12777_1_TELEMATICS_PduR_CanIfRxIndication
 *fill*         0x0000000000022f69        0x7 
 .text          0x0000000000022f70       0x42 C:\Users\MURTI\AppData\Local\Temp\dSPACE\CfgDesk\AppCache\3\Build\EXP_03\Compile\Telematics_12777_1\Telematics_12777_1.a(SchM_CanIf.o64)
                0x0000000000022f70                BM_BUS_CONFIGURATION_i1_i12777_1_TELEMATICS_SchM_Enter_CanIf
                0x0000000000022f90                BM_BUS_CONFIGURATION_i1_i12777_1_TELEMATICS_SchM_Exit_CanIf
 *fill*         0x0000000000022fb2        0xe 
 .text          0x0000000000022fc0      0x23a C:\Users\MURTI\AppData\Local\Temp\dSPACE\CfgDesk\AppCache\3\Build\EXP_03\Compile\Manipulation_12777_1\Manipulation_12777_1.a(CanManipulation.o64)
                0x0000000000022fc0                BM_BUS_CONFIGURATION_i1_i12777_1_CanManipulation_Init
                0x00000000000230c0                BM_BUS_CONFIGURATION_i1_i12777_1_CanManipulation_Handle
 *fill*         0x00000000000231fa        0x6 
 .text          0x0000000000023200       0x71 C:\Users\MURTI\AppData\Local\Temp\dSPACE\CfgDesk\AppCache\3\Build\EXP_03\Compile\Manipulation_12777_1\Manipulation_12777_1.a(CanManipulation_Cfg.o64)
                0x0000000000023240                BM_BUS_CONFIGURATION_i1_i12777_1_CanManip_OnInit
                0x0000000000023250                BM_BUS_CONFIGURATION_i1_i12777_1_CanManip_VariableInitialize
                0x0000000000023260                BM_BUS_CONFIGURATION_i1_i12777_1_CanManip_OnStart
                0x0000000000023270                BM_BUS_CONFIGURATION_i1_i12777_1_CanManip_OnStop
 *fill*         0x0000000000023271        0xf 
 .text          0x0000000000023280     0xbae8 C:\Users\MURTI\AppData\Local\Temp\dSPACE\CfgDesk\AppCache\3\Build\EXP_03\Compile\Manipulation_12777_1\Manipulation_12777_1.a(CAN0_0.o64)
                0x0000000000023280                BM_BUS_CONFIGURATION_i1_i12777_1__M__CAN0_VariableInitialize_0
                0x0000000000025490                BM_BUS_CONFIGURATION_i1_i12777_1__M__CAN0_OnStart_0
                0x00000000000254a0                BM_BUS_CONFIGURATION_i1_i12777_1__M__CAN0_OnInit_0
                0x00000000000254b0                BM_BUS_CONFIGURATION_i1_i12777_1__M__CAN0_OnStop_0
                0x00000000000254c0                BM_BUS_CONFIGURATION_i1_i12777_1__M__TCU05_CAN0_14666
                0x00000000000256e0                BM_BUS_CONFIGURATION_i1_i12777_1__M__TCU04_CAN0_14667
                0x0000000000026110                BM_BUS_CONFIGURATION_i1_i12777_1__M__TCU03_CAN0_14668
                0x000000000002bbc0                BM_BUS_CONFIGURATION_i1_i12777_1__M__TCU02_CAN0_14669
                0x000000000002c200                BM_BUS_CONFIGURATION_i1_i12777_1__M__TCU01_CAN0_14670
                0x000000000002d020                BM_BUS_CONFIGURATION_i1_i12777_1__M__BMS02_CAN0_14671
                0x000000000002d820                BM_BUS_CONFIGURATION_i1_i12777_1__M__BMS01_CAN0_14672
                0x000000000002de20                BM_BUS_CONFIGURATION_i1_i12777_1__M__MainController_CAN0_14673
 *fill*         0x000000000002ed68        0x8 
 .text          0x000000000002ed70       0x74 C:\Users\MURTI\AppData\Local\Temp\dSPACE\CfgDesk\AppCache\3\Build\EXP_03\Compile\Manipulation_12777_1\Manipulation_12777_1.a(ManipulationInterface.o64)
                0x000000000002ed70                BM_BUS_CONFIGURATION_i1_i12777_1_Manip_VariableInitialize
                0x000000000002ed90                BM_BUS_CONFIGURATION_i1_i12777_1_Manip_OnStart
                0x000000000002edb0                BM_BUS_CONFIGURATION_i1_i12777_1_Manip_OnStop
                0x000000000002edd0                BM_BUS_CONFIGURATION_i1_i12777_1_Manip_OnInit
 *fill*         0x000000000002ede4        0xc 
 .text          0x000000000002edf0     0x25b7 C:\Users\MURTI\AppData\Local\Temp\dSPACE\CfgDesk\AppCache\3\Build\EXP_03\Compile\Manipulation_12777_1\Manipulation_12777_1.a(ManipulationInit_0.o64)
                0x000000000002edf0                BM_BUS_CONFIGURATION_i1_i12777_1_Manip_VariableInitialize_0
 *fill*         0x00000000000313a7        0x9 
 .text          0x00000000000313b0      0x10c C:\Users\MURTI\AppData\Local\Temp\dSPACE\CfgDesk\AppCache\3\Build\EXP_03\Compile\ManipulationHook_21408\ManipulationHook_21408.a(ManipulationHook.o64)
                0x0000000000031400                ManipulationHookRegister_CAN
 *fill*         0x00000000000314bc        0x4 
 .text          0x00000000000314c0       0x61 C:\Program Files\dSPACE RCPHIL 2023-B\Compiler\Linux_4.14_GCC_10.3\target\x86_64-linux-gnu\lib\libc_nonshared.a(elf-init.oS)
                0x00000000000314c0                __libc_csu_init
                0x0000000000031520                __libc_csu_fini
 .text          0x0000000000031521        0x0 c:/program files/dspace rcphil 2023-b/compiler/linux_4.14_gcc_10.3/target/x86_64-linux-gnu/bin/../lib/gcc/x86_64-linux-gnu/10.3.0/crtendS.o
 .text          0x0000000000031521        0x0 c:/program files/dspace rcphil 2023-b/compiler/linux_4.14_gcc_10.3/target/x86_64-linux-gnu/bin/../../x86_64-linux-gnu/lib/crtn.o
 *(.gnu.warning)

.fini           0x0000000000031524        0xe
 *(SORT_NONE(.fini))
 .fini          0x0000000000031524        0x4 c:/program files/dspace rcphil 2023-b/compiler/linux_4.14_gcc_10.3/target/x86_64-linux-gnu/bin/../../x86_64-linux-gnu/lib/crti.o
                0x0000000000031524                _fini
 .fini          0x0000000000031528        0x5 c:/program files/dspace rcphil 2023-b/compiler/linux_4.14_gcc_10.3/target/x86_64-linux-gnu/bin/../lib/gcc/x86_64-linux-gnu/10.3.0/crtbeginS.o
 .fini          0x000000000003152d        0x5 c:/program files/dspace rcphil 2023-b/compiler/linux_4.14_gcc_10.3/target/x86_64-linux-gnu/bin/../../x86_64-linux-gnu/lib/crtn.o
                [!provide]                        PROVIDE (__etext = .)
                [!provide]                        PROVIDE (_etext = .)
                [!provide]                        PROVIDE (etext = .)
                0x0000000000032000                . = ALIGN (CONSTANT (MAXPAGESIZE))
                0x0000000000032000                . = SEGMENT_START ("rodata-segment", (ALIGN (CONSTANT (MAXPAGESIZE)) + (. & (CONSTANT (MAXPAGESIZE) - 0x1))))

.rodata         0x0000000000032000     0x1058
 *(.rodata .rodata.* .gnu.linkonce.r.*)
 .rodata.cst4   0x0000000000032000        0x4 c:/program files/dspace rcphil 2023-b/compiler/linux_4.14_gcc_10.3/target/x86_64-linux-gnu/bin/../../x86_64-linux-gnu/lib/Scrt1.o
                0x0000000000032000                _IO_stdin_used
 *fill*         0x0000000000032004        0xc 
 .rodata        0x0000000000032010       0x1c StateManager_generated.o64
 *fill*         0x000000000003202c        0x4 
 .rodata.cst8   0x0000000000032030        0x8 ScalingFunctions.o64
 .rodata        0x0000000000032038        0x8 dssimengine_accesspoint.o64
 .rodata._ZTS18DsCApplicationMain
                0x0000000000032040       0x15 dssimengine_main.o64
                0x0000000000032040                _ZTS18DsCApplicationMain
 .rodata.str1.1
                0x0000000000032055       0x2a dssimengine_main.o64
 .rodata.str1.1
                0x000000000003207f       0x31 rtosal_task.o64
 .rodata.str1.8
                0x00000000000320b0       0xee rtosal_task.o64
 *fill*         0x000000000003219e        0x2 
 .rodata._ZTS24DsCRtosAlPeriodic_Task_1
                0x00000000000321a0       0x1b rtosal_task.o64
                0x00000000000321a0                _ZTS24DsCRtosAlPeriodic_Task_1
 *fill*         0x00000000000321bb        0x5 
 .rodata._ZTS26DsCRtosAlBus_Configuration
                0x00000000000321c0       0x1d rtosal_task.o64
                0x00000000000321c0                _ZTS26DsCRtosAlBus_Configuration
 *fill*         0x00000000000321dd        0x3 
 .rodata._ZTS24DsCRtosAlCAN_RX_Task_i1_
                0x00000000000321e0       0x1b rtosal_task.o64
                0x00000000000321e0                _ZTS24DsCRtosAlCAN_RX_Task_i1_
 *fill*         0x00000000000321fb        0x5 
 .rodata.cst8   0x0000000000032200        0x8 rtosal_taskap.o64
 .rodata.str1.8
                0x0000000000032208       0xe2 rtosal_simengineap.o64
 .rodata.str1.1
                0x00000000000322ea       0x44 rtosal_simengineap.o64
 *fill*         0x000000000003232e        0x2 
 .rodata.cst8   0x0000000000032330        0x8 rtosal_simengineap.o64
                                         0x10 (size before relaxing)
 .rodata.str1.1
                0x0000000000032338        0xe IOCode_Data.o64
 .rodata.str1.1
                0x0000000000032346       0x7d dssimengine_accesspoint_CAN.o64
                                         0x80 (size before relaxing)
 *fill*         0x00000000000323c3        0x5 
 .rodata.str1.8
                0x00000000000323c8      0x289 dssimengine_accesspoint_CAN.o64
 *fill*         0x0000000000032651        0x3 
 .rodata.cst4   0x0000000000032654        0x4 dssimengine_accesspoint_CAN.o64
 .rodata.cst8   0x0000000000032658        0x8 ConvertHwTimeToSimTime.o64
 .rodata.str1.1
                0x0000000000032660       0x14 C:\Users\MURTI\AppData\Local\Temp\dSPACE\CfgDesk\AppCache\3\Build\EXP_03\Compile\DriveSystemControl\DriveSystemControl.a(DriveSystemControl_dsrtmdlfcn.o64)
 *fill*         0x0000000000032674        0x4 
 .rodata.str1.8
                0x0000000000032678       0x29 C:\Users\MURTI\AppData\Local\Temp\dSPACE\CfgDesk\AppCache\3\Build\EXP_03\Compile\DriveSystemControl\DriveSystemControl.a(DriveSystemControl_dsrtmdlfcn.o64)
 *fill*         0x00000000000326a1       0x1f 
 .rodata        0x00000000000326c0       0x6a C:\Users\MURTI\AppData\Local\Temp\dSPACE\CfgDesk\AppCache\3\Build\EXP_03\Compile\BMS_12777_1\BMS_12777_1.a(CanIf.o64)
 *fill*         0x000000000003272a        0x2 
 .rodata        0x000000000003272c       0x15 C:\Users\MURTI\AppData\Local\Temp\dSPACE\CfgDesk\AppCache\3\Build\EXP_03\Compile\BMS_12777_1\BMS_12777_1.a(CanIf_Cfg.o64)
                0x000000000003272c                BM_BUS_CONFIGURATION_i1_i12777_1_BMS_CanIf_NumberOfCanHWUnits
                0x000000000003272d                BM_BUS_CONFIGURATION_i1_i12777_1_BMS_CanIf_MaxNumberOfHrh
                0x000000000003272e                BM_BUS_CONFIGURATION_i1_i12777_1_BMS_CanIf_VersionInfoApi
                0x000000000003272f                BM_BUS_CONFIGURATION_i1_i12777_1_BMS_CanIf_PublicTxConfirmPollingSupport
                0x0000000000032730                BM_BUS_CONFIGURATION_i1_i12777_1_BMS_CanIf_TransmitCancellation
                0x0000000000032731                BM_BUS_CONFIGURATION_i1_i12777_1_BMS_CanIf_PublicWakeupCheckValidationSupport
                0x0000000000032734                BM_BUS_CONFIGURATION_i1_i12777_1_BMS_CanIf_SoftwareFilterType
                0x0000000000032738                BM_BUS_CONFIGURATION_i1_i12777_1_BMS_CanIf_WakeupSupport
                0x0000000000032739                BM_BUS_CONFIGURATION_i1_i12777_1_BMS_CanIf_DlcCheck
                0x000000000003273a                BM_BUS_CONFIGURATION_i1_i12777_1_BMS_CanIf_SetDynamicTxIdApi
                0x000000000003273b                BM_BUS_CONFIGURATION_i1_i12777_1_BMS_CanIf_ReadRxPduNotifyStatusApi
                0x000000000003273c                BM_BUS_CONFIGURATION_i1_i12777_1_BMS_CanIf_ReadTxPduNotifyStatusApi
                0x000000000003273d                BM_BUS_CONFIGURATION_i1_i12777_1_BMS_CanIf_ReadRxPduDataApi
                0x000000000003273e                BM_BUS_CONFIGURATION_i1_i12777_1_BMS_CanIf_PublicPNSupport
                0x000000000003273f                BM_BUS_CONFIGURATION_i1_i12777_1_BMS_CanIf_MultipleDriverSupport
                0x0000000000032740                BM_BUS_CONFIGURATION_i1_i12777_1_BMS_CanIf_DevErrorDetect
 *fill*         0x0000000000032741        0x3 
 .rodata        0x0000000000032744       0x30 C:\Users\MURTI\AppData\Local\Temp\dSPACE\CfgDesk\AppCache\3\Build\EXP_03\Compile\BMS_12777_1\BMS_12777_1.a(Rte_generated.o64)
 *fill*         0x0000000000032774        0x4 
 .rodata.cst8   0x0000000000032778       0x18 C:\Users\MURTI\AppData\Local\Temp\dSPACE\CfgDesk\AppCache\3\Build\EXP_03\Compile\BMS_12777_1\BMS_12777_1.a(Rte_generated.o64)
                                         0x20 (size before relaxing)
 .rodata        0x0000000000032790       0x1c C:\Users\MURTI\AppData\Local\Temp\dSPACE\CfgDesk\AppCache\3\Build\EXP_03\Compile\BMS_12777_1\BMS_12777_1.a(Com_Tx_generated.o64)
 .rodata        0x00000000000327ac       0x14 C:\Users\MURTI\AppData\Local\Temp\dSPACE\CfgDesk\AppCache\3\Build\EXP_03\Compile\BMS_12777_1\BMS_12777_1.a(Com_Rx_generated.o64)
 .rodata        0x00000000000327c0       0x6a C:\Users\MURTI\AppData\Local\Temp\dSPACE\CfgDesk\AppCache\3\Build\EXP_03\Compile\IPC_12777_1\IPC_12777_1.a(CanIf.o64)
 *fill*         0x000000000003282a        0x2 
 .rodata        0x000000000003282c       0x15 C:\Users\MURTI\AppData\Local\Temp\dSPACE\CfgDesk\AppCache\3\Build\EXP_03\Compile\IPC_12777_1\IPC_12777_1.a(CanIf_Cfg.o64)
                0x000000000003282c                BM_BUS_CONFIGURATION_i1_i12777_1_IPC_CanIf_NumberOfCanHWUnits
                0x000000000003282d                BM_BUS_CONFIGURATION_i1_i12777_1_IPC_CanIf_MaxNumberOfHrh
                0x000000000003282e                BM_BUS_CONFIGURATION_i1_i12777_1_IPC_CanIf_VersionInfoApi
                0x000000000003282f                BM_BUS_CONFIGURATION_i1_i12777_1_IPC_CanIf_PublicTxConfirmPollingSupport
                0x0000000000032830                BM_BUS_CONFIGURATION_i1_i12777_1_IPC_CanIf_TransmitCancellation
                0x0000000000032831                BM_BUS_CONFIGURATION_i1_i12777_1_IPC_CanIf_PublicWakeupCheckValidationSupport
                0x0000000000032834                BM_BUS_CONFIGURATION_i1_i12777_1_IPC_CanIf_SoftwareFilterType
                0x0000000000032838                BM_BUS_CONFIGURATION_i1_i12777_1_IPC_CanIf_WakeupSupport
                0x0000000000032839                BM_BUS_CONFIGURATION_i1_i12777_1_IPC_CanIf_DlcCheck
                0x000000000003283a                BM_BUS_CONFIGURATION_i1_i12777_1_IPC_CanIf_SetDynamicTxIdApi
                0x000000000003283b                BM_BUS_CONFIGURATION_i1_i12777_1_IPC_CanIf_ReadRxPduNotifyStatusApi
                0x000000000003283c                BM_BUS_CONFIGURATION_i1_i12777_1_IPC_CanIf_ReadTxPduNotifyStatusApi
                0x000000000003283d                BM_BUS_CONFIGURATION_i1_i12777_1_IPC_CanIf_ReadRxPduDataApi
                0x000000000003283e                BM_BUS_CONFIGURATION_i1_i12777_1_IPC_CanIf_PublicPNSupport
                0x000000000003283f                BM_BUS_CONFIGURATION_i1_i12777_1_IPC_CanIf_MultipleDriverSupport
                0x0000000000032840                BM_BUS_CONFIGURATION_i1_i12777_1_IPC_CanIf_DevErrorDetect
 *fill*         0x0000000000032841        0x3 
 .rodata        0x0000000000032844       0xf0 C:\Users\MURTI\AppData\Local\Temp\dSPACE\CfgDesk\AppCache\3\Build\EXP_03\Compile\IPC_12777_1\IPC_12777_1.a(Rte_generated.o64)
 *fill*         0x0000000000032934        0x4 
 .rodata.cst8   0x0000000000032938        0x8 C:\Users\MURTI\AppData\Local\Temp\dSPACE\CfgDesk\AppCache\3\Build\EXP_03\Compile\IPC_12777_1\IPC_12777_1.a(Rte_generated.o64)
                                         0x18 (size before relaxing)
 .rodata        0x0000000000032940      0x104 C:\Users\MURTI\AppData\Local\Temp\dSPACE\CfgDesk\AppCache\3\Build\EXP_03\Compile\IPC_12777_1\IPC_12777_1.a(Com_Rx_generated.o64)
 *fill*         0x0000000000032a44       0x1c 
 .rodata        0x0000000000032a60       0x6a C:\Users\MURTI\AppData\Local\Temp\dSPACE\CfgDesk\AppCache\3\Build\EXP_03\Compile\TCU_12777_1\TCU_12777_1.a(CanIf.o64)
 *fill*         0x0000000000032aca        0x2 
 .rodata        0x0000000000032acc       0x15 C:\Users\MURTI\AppData\Local\Temp\dSPACE\CfgDesk\AppCache\3\Build\EXP_03\Compile\TCU_12777_1\TCU_12777_1.a(CanIf_Cfg.o64)
                0x0000000000032acc                BM_BUS_CONFIGURATION_i1_i12777_1_TCU_CanIf_NumberOfCanHWUnits
                0x0000000000032acd                BM_BUS_CONFIGURATION_i1_i12777_1_TCU_CanIf_MaxNumberOfHrh
                0x0000000000032ace                BM_BUS_CONFIGURATION_i1_i12777_1_TCU_CanIf_VersionInfoApi
                0x0000000000032acf                BM_BUS_CONFIGURATION_i1_i12777_1_TCU_CanIf_PublicTxConfirmPollingSupport
                0x0000000000032ad0                BM_BUS_CONFIGURATION_i1_i12777_1_TCU_CanIf_TransmitCancellation
                0x0000000000032ad1                BM_BUS_CONFIGURATION_i1_i12777_1_TCU_CanIf_PublicWakeupCheckValidationSupport
                0x0000000000032ad4                BM_BUS_CONFIGURATION_i1_i12777_1_TCU_CanIf_SoftwareFilterType
                0x0000000000032ad8                BM_BUS_CONFIGURATION_i1_i12777_1_TCU_CanIf_WakeupSupport
                0x0000000000032ad9                BM_BUS_CONFIGURATION_i1_i12777_1_TCU_CanIf_DlcCheck
                0x0000000000032ada                BM_BUS_CONFIGURATION_i1_i12777_1_TCU_CanIf_SetDynamicTxIdApi
                0x0000000000032adb                BM_BUS_CONFIGURATION_i1_i12777_1_TCU_CanIf_ReadRxPduNotifyStatusApi
                0x0000000000032adc                BM_BUS_CONFIGURATION_i1_i12777_1_TCU_CanIf_ReadTxPduNotifyStatusApi
                0x0000000000032add                BM_BUS_CONFIGURATION_i1_i12777_1_TCU_CanIf_ReadRxPduDataApi
                0x0000000000032ade                BM_BUS_CONFIGURATION_i1_i12777_1_TCU_CanIf_PublicPNSupport
                0x0000000000032adf                BM_BUS_CONFIGURATION_i1_i12777_1_TCU_CanIf_MultipleDriverSupport
                0x0000000000032ae0                BM_BUS_CONFIGURATION_i1_i12777_1_TCU_CanIf_DevErrorDetect
 *fill*         0x0000000000032ae1        0x3 
 .rodata        0x0000000000032ae4      0x110 C:\Users\MURTI\AppData\Local\Temp\dSPACE\CfgDesk\AppCache\3\Build\EXP_03\Compile\TCU_12777_1\TCU_12777_1.a(Rte_generated.o64)
 *fill*         0x0000000000032bf4        0x4 
 .rodata.cst8   0x0000000000032bf8       0x28 C:\Users\MURTI\AppData\Local\Temp\dSPACE\CfgDesk\AppCache\3\Build\EXP_03\Compile\TCU_12777_1\TCU_12777_1.a(Rte_generated.o64)
                                         0x38 (size before relaxing)
 .rodata        0x0000000000032c20      0x170 C:\Users\MURTI\AppData\Local\Temp\dSPACE\CfgDesk\AppCache\3\Build\EXP_03\Compile\TCU_12777_1\TCU_12777_1.a(Com_Tx_generated.o64)
 *fill*         0x0000000000032d90       0x10 
 .rodata        0x0000000000032da0       0x6a C:\Users\MURTI\AppData\Local\Temp\dSPACE\CfgDesk\AppCache\3\Build\EXP_03\Compile\Telematics_12777_1\Telematics_12777_1.a(CanIf.o64)
 *fill*         0x0000000000032e0a        0x2 
 .rodata        0x0000000000032e0c       0x15 C:\Users\MURTI\AppData\Local\Temp\dSPACE\CfgDesk\AppCache\3\Build\EXP_03\Compile\Telematics_12777_1\Telematics_12777_1.a(CanIf_Cfg.o64)
                0x0000000000032e0c                BM_BUS_CONFIGURATION_i1_i12777_1_TELEMATICS_CanIf_NumberOfCanHWUnits
                0x0000000000032e0d                BM_BUS_CONFIGURATION_i1_i12777_1_TELEMATICS_CanIf_MaxNumberOfHrh
                0x0000000000032e0e                BM_BUS_CONFIGURATION_i1_i12777_1_TELEMATICS_CanIf_VersionInfoApi
                0x0000000000032e0f                BM_BUS_CONFIGURATION_i1_i12777_1_TELEMATICS_CanIf_PublicTxConfirmPollingSupport
                0x0000000000032e10                BM_BUS_CONFIGURATION_i1_i12777_1_TELEMATICS_CanIf_TransmitCancellation
                0x0000000000032e11                BM_BUS_CONFIGURATION_i1_i12777_1_TELEMATICS_CanIf_PublicWakeupCheckValidationSupport
                0x0000000000032e14                BM_BUS_CONFIGURATION_i1_i12777_1_TELEMATICS_CanIf_SoftwareFilterType
                0x0000000000032e18                BM_BUS_CONFIGURATION_i1_i12777_1_TELEMATICS_CanIf_WakeupSupport
                0x0000000000032e19                BM_BUS_CONFIGURATION_i1_i12777_1_TELEMATICS_CanIf_DlcCheck
                0x0000000000032e1a                BM_BUS_CONFIGURATION_i1_i12777_1_TELEMATICS_CanIf_SetDynamicTxIdApi
                0x0000000000032e1b                BM_BUS_CONFIGURATION_i1_i12777_1_TELEMATICS_CanIf_ReadRxPduNotifyStatusApi
                0x0000000000032e1c                BM_BUS_CONFIGURATION_i1_i12777_1_TELEMATICS_CanIf_ReadTxPduNotifyStatusApi
                0x0000000000032e1d                BM_BUS_CONFIGURATION_i1_i12777_1_TELEMATICS_CanIf_ReadRxPduDataApi
                0x0000000000032e1e                BM_BUS_CONFIGURATION_i1_i12777_1_TELEMATICS_CanIf_PublicPNSupport
                0x0000000000032e1f                BM_BUS_CONFIGURATION_i1_i12777_1_TELEMATICS_CanIf_MultipleDriverSupport
                0x0000000000032e20                BM_BUS_CONFIGURATION_i1_i12777_1_TELEMATICS_CanIf_DevErrorDetect
 *fill*         0x0000000000032e21        0x3 
 .rodata        0x0000000000032e24      0x10c C:\Users\MURTI\AppData\Local\Temp\dSPACE\CfgDesk\AppCache\3\Build\EXP_03\Compile\Telematics_12777_1\Telematics_12777_1.a(Rte_generated.o64)
 .rodata.cst8   0x0000000000032f30       0x20 C:\Users\MURTI\AppData\Local\Temp\dSPACE\CfgDesk\AppCache\3\Build\EXP_03\Compile\Telematics_12777_1\Telematics_12777_1.a(Rte_generated.o64)
 .rodata        0x0000000000032f30      0x128 C:\Users\MURTI\AppData\Local\Temp\dSPACE\CfgDesk\AppCache\3\Build\EXP_03\Compile\Telematics_12777_1\Telematics_12777_1.a(Com_Rx_generated.o64)
 .rodata.cst8   0x0000000000033058       0x48 C:\Users\MURTI\AppData\Local\Temp\dSPACE\CfgDesk\AppCache\3\Build\EXP_03\Compile\Manipulation_12777_1\Manipulation_12777_1.a(CAN0_0.o64)

.rodata1
 *(.rodata1)

.eh_frame_hdr   0x0000000000033058     0x2434
 *(.eh_frame_hdr)
 .eh_frame_hdr  0x0000000000033058     0x2434 c:/program files/dspace rcphil 2023-b/compiler/linux_4.14_gcc_10.3/target/x86_64-linux-gnu/bin/../../x86_64-linux-gnu/lib/Scrt1.o
                0x0000000000033058                __GNU_EH_FRAME_HDR
 *(.eh_frame_entry .eh_frame_entry.*)

.eh_frame       0x0000000000035490     0x73f0
 *(.eh_frame)
 .eh_frame      0x0000000000035490       0x30 c:/program files/dspace rcphil 2023-b/compiler/linux_4.14_gcc_10.3/target/x86_64-linux-gnu/bin/../../x86_64-linux-gnu/lib/Scrt1.o
                                         0x2c (size before relaxing)
 *fill*         0x00000000000354c0        0x0 
 .eh_frame      0x00000000000354c0       0x40 c:/program files/dspace rcphil 2023-b/compiler/linux_4.14_gcc_10.3/target/x86_64-linux-gnu/bin/../../x86_64-linux-gnu/lib/Scrt1.o
 .eh_frame      0x0000000000035500       0x18 c:/program files/dspace rcphil 2023-b/compiler/linux_4.14_gcc_10.3/target/x86_64-linux-gnu/bin/../../x86_64-linux-gnu/lib/Scrt1.o
                                         0x30 (size before relaxing)
 .eh_frame      0x0000000000035518      0x248 StateManager_generated.o64
                                        0x260 (size before relaxing)
 .eh_frame      0x0000000000035760      0x2f8 ScalingFunctions.o64
                                        0x310 (size before relaxing)
 .eh_frame      0x0000000000035a58      0x138 Hashmap.o64
                                        0x150 (size before relaxing)
 .eh_frame      0x0000000000035b90      0x188 HelperMethods.o64
                                        0x1a0 (size before relaxing)
 .eh_frame      0x0000000000035d18       0x58 mdladapter_mdlfunctions.o64
                                         0x70 (size before relaxing)
 .eh_frame      0x0000000000035d70     0x1670 data_in_ap.o64
                                       0x1688 (size before relaxing)
 .eh_frame      0x00000000000373e0     0x1788 data_out_ap.o64
                                       0x17a0 (size before relaxing)
 .eh_frame      0x0000000000038b68       0x18 fm_entry_ap.o64
                                         0x30 (size before relaxing)
 .eh_frame      0x0000000000038b80       0x18 fm_exit_ap.o64
                                         0x30 (size before relaxing)
 .eh_frame      0x0000000000038b98      0x3a0 dssimengine_accesspoint.o64
                                        0x3b8 (size before relaxing)
 .eh_frame      0x0000000000038f38       0x58 dssimengine_api.o64
                                         0x70 (size before relaxing)
 .eh_frame      0x0000000000038f90      0x1b8 dssimengine_main.o64
                                        0x1d0 (size before relaxing)
 .eh_frame      0x0000000000039148      0x398 rtosal_task.o64
                                        0x3d0 (size before relaxing)
 .eh_frame      0x00000000000394e0       0x88 rtosal_taskap.o64
                                         0xa0 (size before relaxing)
 .eh_frame      0x0000000000039568       0xf0 rtosal_simengineap.o64
                                        0x108 (size before relaxing)
 .eh_frame      0x0000000000039658       0x28 IOCode_Data.o64
                                         0x40 (size before relaxing)
 .eh_frame      0x0000000000039680      0x1a8 dssimengine_accesspoint_CAN.o64
                                        0x1c0 (size before relaxing)
 .eh_frame      0x0000000000039828       0x18 IOCode_TestAutomationInit_0.o64
                                         0x30 (size before relaxing)
 .eh_frame      0x0000000000039840       0x60 BusManager_Bus_Configuration_i1_i12777_1.o64
                                         0x78 (size before relaxing)
 .eh_frame      0x00000000000398a0       0xe0 Bus_Configuration_i1_i12777.o64
                                         0xf8 (size before relaxing)
 .eh_frame      0x0000000000039980       0xe0 Bus_Configuration_i1_i12777_tx.o64
                                         0xf8 (size before relaxing)
 .eh_frame      0x0000000000039a60       0x18 Bus_Configuration_i1_i12777_if.o64
                                         0x30 (size before relaxing)
 .eh_frame      0x0000000000039a78      0x120 Bus_Configuration_i1_i12777_CAN.o64
                                        0x138 (size before relaxing)
 .eh_frame      0x0000000000039b98       0x58 BusRtCode.o64
                                         0x70 (size before relaxing)
 .eh_frame      0x0000000000039bf0       0x18 ConvertHwTimeToSimTime.o64
                                         0x30 (size before relaxing)
 .eh_frame      0x0000000000039c08       0xa8 C:\Users\MURTI\AppData\Local\Temp\dSPACE\CfgDesk\AppCache\3\Build\EXP_03\Compile\DriveSystemControl\DriveSystemControl.a(DriveSystemControl_dsrtmdlfcn.o64)
                                         0xc0 (size before relaxing)
 .eh_frame      0x0000000000039cb0       0x28 C:\Users\MURTI\AppData\Local\Temp\dSPACE\CfgDesk\AppCache\3\Build\EXP_03\Compile\DriveSystemControl\DriveSystemControl.a(DriveSystemControl_dsrttf.o64)
                                         0x40 (size before relaxing)
 .eh_frame      0x0000000000039cd8       0x70 C:\Users\MURTI\AppData\Local\Temp\dSPACE\CfgDesk\AppCache\3\Build\EXP_03\Compile\DriveSystemControl\DriveSystemControl.a(DriveSystemControl.o64)
                                         0x88 (size before relaxing)
 .eh_frame      0x0000000000039d48       0x20 C:\Users\MURTI\AppData\Local\Temp\dSPACE\CfgDesk\AppCache\3\Build\EXP_03\Compile\DriveSystemControl\DriveSystemControl.a(DriveSystemControl_dsmpb_bd.o64)
                                         0x38 (size before relaxing)
 .eh_frame      0x0000000000039d68       0x40 C:\Users\MURTI\AppData\Local\Temp\dSPACE\CfgDesk\AppCache\3\Build\EXP_03\Compile\DriveSystemControl\DriveSystemControl.a(DriveSystemControl_dsrtvdf.o64)
                                         0x58 (size before relaxing)
 .eh_frame      0x0000000000039da8       0xa0 C:\Users\MURTI\AppData\Local\Temp\dSPACE\CfgDesk\AppCache\3\Build\EXP_03\Compile\Inspection_12777_1\Inspection_12777_1.a(CanInspection.o64)
                                         0xb8 (size before relaxing)
 .eh_frame      0x0000000000039e48       0xa0 C:\Users\MURTI\AppData\Local\Temp\dSPACE\CfgDesk\AppCache\3\Build\EXP_03\Compile\Inspection_12777_1\Inspection_12777_1.a(CanInspection_Cfg.o64)
                                         0xb8 (size before relaxing)
 .eh_frame      0x0000000000039ee8       0x50 C:\Users\MURTI\AppData\Local\Temp\dSPACE\CfgDesk\AppCache\3\Build\EXP_03\Compile\Inspection_12777_1\Inspection_12777_1.a(InspectionInterface.o64)
                                         0x68 (size before relaxing)
 .eh_frame      0x0000000000039f38      0x4f0 C:\Users\MURTI\AppData\Local\Temp\dSPACE\CfgDesk\AppCache\3\Build\EXP_03\Compile\BMS_12777_1\BMS_12777_1.a(CanIf.o64)
                                        0x508 (size before relaxing)
 .eh_frame      0x000000000003a428       0x58 C:\Users\MURTI\AppData\Local\Temp\dSPACE\CfgDesk\AppCache\3\Build\EXP_03\Compile\BMS_12777_1\BMS_12777_1.a(CanIf_Cfg.o64)
                                         0x70 (size before relaxing)
 .eh_frame      0x000000000003a480      0x108 C:\Users\MURTI\AppData\Local\Temp\dSPACE\CfgDesk\AppCache\3\Build\EXP_03\Compile\BMS_12777_1\BMS_12777_1.a(Rte_generated.o64)
                                        0x120 (size before relaxing)
 .eh_frame      0x000000000003a588       0x70 C:\Users\MURTI\AppData\Local\Temp\dSPACE\CfgDesk\AppCache\3\Build\EXP_03\Compile\BMS_12777_1\BMS_12777_1.a(Com_generated.o64)
                                         0x88 (size before relaxing)
 .eh_frame      0x000000000003a5f8      0x138 C:\Users\MURTI\AppData\Local\Temp\dSPACE\CfgDesk\AppCache\3\Build\EXP_03\Compile\BMS_12777_1\BMS_12777_1.a(Com_Tx_generated.o64)
                                        0x150 (size before relaxing)
 .eh_frame      0x000000000003a730       0xa0 C:\Users\MURTI\AppData\Local\Temp\dSPACE\CfgDesk\AppCache\3\Build\EXP_03\Compile\BMS_12777_1\BMS_12777_1.a(Com_Rx_generated.o64)
                                         0xb8 (size before relaxing)
 .eh_frame      0x000000000003a7d0       0xb0 C:\Users\MURTI\AppData\Local\Temp\dSPACE\CfgDesk\AppCache\3\Build\EXP_03\Compile\BMS_12777_1\BMS_12777_1.a(PduR_generated.o64)
                                         0xc8 (size before relaxing)
 .eh_frame      0x000000000003a880       0x28 C:\Users\MURTI\AppData\Local\Temp\dSPACE\CfgDesk\AppCache\3\Build\EXP_03\Compile\BMS_12777_1\BMS_12777_1.a(SchM_CanIf.o64)
                                         0x40 (size before relaxing)
 .eh_frame      0x000000000003a8a8      0x4f0 C:\Users\MURTI\AppData\Local\Temp\dSPACE\CfgDesk\AppCache\3\Build\EXP_03\Compile\IPC_12777_1\IPC_12777_1.a(CanIf.o64)
                                        0x508 (size before relaxing)
 .eh_frame      0x000000000003ad98       0x50 C:\Users\MURTI\AppData\Local\Temp\dSPACE\CfgDesk\AppCache\3\Build\EXP_03\Compile\IPC_12777_1\IPC_12777_1.a(CanIf_Cfg.o64)
                                         0x68 (size before relaxing)
 .eh_frame      0x000000000003ade8       0xc8 C:\Users\MURTI\AppData\Local\Temp\dSPACE\CfgDesk\AppCache\3\Build\EXP_03\Compile\IPC_12777_1\IPC_12777_1.a(Rte_generated.o64)
                                         0xe0 (size before relaxing)
 .eh_frame      0x000000000003aeb0       0x70 C:\Users\MURTI\AppData\Local\Temp\dSPACE\CfgDesk\AppCache\3\Build\EXP_03\Compile\IPC_12777_1\IPC_12777_1.a(Com_generated.o64)
                                         0x88 (size before relaxing)
 .eh_frame      0x000000000003af20      0x108 C:\Users\MURTI\AppData\Local\Temp\dSPACE\CfgDesk\AppCache\3\Build\EXP_03\Compile\IPC_12777_1\IPC_12777_1.a(Com_Tx_generated.o64)
                                        0x120 (size before relaxing)
 .eh_frame      0x000000000003b028       0xd8 C:\Users\MURTI\AppData\Local\Temp\dSPACE\CfgDesk\AppCache\3\Build\EXP_03\Compile\IPC_12777_1\IPC_12777_1.a(Com_Rx_generated.o64)
                                         0xf0 (size before relaxing)
 .eh_frame      0x000000000003b100       0xb0 C:\Users\MURTI\AppData\Local\Temp\dSPACE\CfgDesk\AppCache\3\Build\EXP_03\Compile\IPC_12777_1\IPC_12777_1.a(PduR_generated.o64)
                                         0xc8 (size before relaxing)
 .eh_frame      0x000000000003b1b0       0x28 C:\Users\MURTI\AppData\Local\Temp\dSPACE\CfgDesk\AppCache\3\Build\EXP_03\Compile\IPC_12777_1\IPC_12777_1.a(SchM_CanIf.o64)
                                         0x40 (size before relaxing)
 .eh_frame      0x000000000003b1d8      0x4f0 C:\Users\MURTI\AppData\Local\Temp\dSPACE\CfgDesk\AppCache\3\Build\EXP_03\Compile\TCU_12777_1\TCU_12777_1.a(CanIf.o64)
                                        0x508 (size before relaxing)
 .eh_frame      0x000000000003b6c8       0x50 C:\Users\MURTI\AppData\Local\Temp\dSPACE\CfgDesk\AppCache\3\Build\EXP_03\Compile\TCU_12777_1\TCU_12777_1.a(CanIf_Cfg.o64)
                                         0x68 (size before relaxing)
 .eh_frame      0x000000000003b718      0x100 C:\Users\MURTI\AppData\Local\Temp\dSPACE\CfgDesk\AppCache\3\Build\EXP_03\Compile\TCU_12777_1\TCU_12777_1.a(Rte_generated.o64)
                                        0x138 (size before relaxing)
 .eh_frame      0x000000000003b818       0x70 C:\Users\MURTI\AppData\Local\Temp\dSPACE\CfgDesk\AppCache\3\Build\EXP_03\Compile\TCU_12777_1\TCU_12777_1.a(Com_generated.o64)
                                         0x88 (size before relaxing)
 .eh_frame      0x000000000003b888      0x160 C:\Users\MURTI\AppData\Local\Temp\dSPACE\CfgDesk\AppCache\3\Build\EXP_03\Compile\TCU_12777_1\TCU_12777_1.a(Com_Tx_generated.o64)
                                        0x178 (size before relaxing)
 .eh_frame      0x000000000003b9e8       0x88 C:\Users\MURTI\AppData\Local\Temp\dSPACE\CfgDesk\AppCache\3\Build\EXP_03\Compile\TCU_12777_1\TCU_12777_1.a(Com_Rx_generated.o64)
                                         0xa0 (size before relaxing)
 .eh_frame      0x000000000003ba70       0xb0 C:\Users\MURTI\AppData\Local\Temp\dSPACE\CfgDesk\AppCache\3\Build\EXP_03\Compile\TCU_12777_1\TCU_12777_1.a(PduR_generated.o64)
                                         0xc8 (size before relaxing)
 .eh_frame      0x000000000003bb20       0x28 C:\Users\MURTI\AppData\Local\Temp\dSPACE\CfgDesk\AppCache\3\Build\EXP_03\Compile\TCU_12777_1\TCU_12777_1.a(SchM_CanIf.o64)
                                         0x40 (size before relaxing)
 .eh_frame      0x000000000003bb48      0x4f0 C:\Users\MURTI\AppData\Local\Temp\dSPACE\CfgDesk\AppCache\3\Build\EXP_03\Compile\Telematics_12777_1\Telematics_12777_1.a(CanIf.o64)
                                        0x508 (size before relaxing)
 .eh_frame      0x000000000003c038       0x50 C:\Users\MURTI\AppData\Local\Temp\dSPACE\CfgDesk\AppCache\3\Build\EXP_03\Compile\Telematics_12777_1\Telematics_12777_1.a(CanIf_Cfg.o64)
                                         0x68 (size before relaxing)
 .eh_frame      0x000000000003c088       0xc8 C:\Users\MURTI\AppData\Local\Temp\dSPACE\CfgDesk\AppCache\3\Build\EXP_03\Compile\Telematics_12777_1\Telematics_12777_1.a(Rte_generated.o64)
                                         0xe0 (size before relaxing)
 .eh_frame      0x000000000003c150       0x70 C:\Users\MURTI\AppData\Local\Temp\dSPACE\CfgDesk\AppCache\3\Build\EXP_03\Compile\Telematics_12777_1\Telematics_12777_1.a(Com_generated.o64)
                                         0x88 (size before relaxing)
 .eh_frame      0x000000000003c1c0      0x108 C:\Users\MURTI\AppData\Local\Temp\dSPACE\CfgDesk\AppCache\3\Build\EXP_03\Compile\Telematics_12777_1\Telematics_12777_1.a(Com_Tx_generated.o64)
                                        0x120 (size before relaxing)
 .eh_frame      0x000000000003c2c8       0xd8 C:\Users\MURTI\AppData\Local\Temp\dSPACE\CfgDesk\AppCache\3\Build\EXP_03\Compile\Telematics_12777_1\Telematics_12777_1.a(Com_Rx_generated.o64)
                                         0xf0 (size before relaxing)
 .eh_frame      0x000000000003c3a0       0xb0 C:\Users\MURTI\AppData\Local\Temp\dSPACE\CfgDesk\AppCache\3\Build\EXP_03\Compile\Telematics_12777_1\Telematics_12777_1.a(PduR_generated.o64)
                                         0xc8 (size before relaxing)
 .eh_frame      0x000000000003c450       0x28 C:\Users\MURTI\AppData\Local\Temp\dSPACE\CfgDesk\AppCache\3\Build\EXP_03\Compile\Telematics_12777_1\Telematics_12777_1.a(SchM_CanIf.o64)
                                         0x40 (size before relaxing)
 .eh_frame      0x000000000003c478       0x78 C:\Users\MURTI\AppData\Local\Temp\dSPACE\CfgDesk\AppCache\3\Build\EXP_03\Compile\Manipulation_12777_1\Manipulation_12777_1.a(CanManipulation.o64)
                                         0x90 (size before relaxing)
 .eh_frame      0x000000000003c4f0       0x90 C:\Users\MURTI\AppData\Local\Temp\dSPACE\CfgDesk\AppCache\3\Build\EXP_03\Compile\Manipulation_12777_1\Manipulation_12777_1.a(CanManipulation_Cfg.o64)
                                         0xa8 (size before relaxing)
 .eh_frame      0x000000000003c580      0x1b0 C:\Users\MURTI\AppData\Local\Temp\dSPACE\CfgDesk\AppCache\3\Build\EXP_03\Compile\Manipulation_12777_1\Manipulation_12777_1.a(CAN0_0.o64)
                                        0x1c8 (size before relaxing)
 .eh_frame      0x000000000003c730       0x60 C:\Users\MURTI\AppData\Local\Temp\dSPACE\CfgDesk\AppCache\3\Build\EXP_03\Compile\Manipulation_12777_1\Manipulation_12777_1.a(ManipulationInterface.o64)
                                         0x78 (size before relaxing)
 .eh_frame      0x000000000003c790       0x18 C:\Users\MURTI\AppData\Local\Temp\dSPACE\CfgDesk\AppCache\3\Build\EXP_03\Compile\Manipulation_12777_1\Manipulation_12777_1.a(ManipulationInit_0.o64)
                                         0x30 (size before relaxing)
 .eh_frame      0x000000000003c7a8       0x78 C:\Users\MURTI\AppData\Local\Temp\dSPACE\CfgDesk\AppCache\3\Build\EXP_03\Compile\ManipulationHook_21408\ManipulationHook_21408.a(ManipulationHook.o64)
                                         0x90 (size before relaxing)
 .eh_frame      0x000000000003c820       0x5c C:\Program Files\dSPACE RCPHIL 2023-B\Compiler\Linux_4.14_GCC_10.3\target\x86_64-linux-gnu\lib\libc_nonshared.a(elf-init.oS)
                                         0x78 (size before relaxing)
 .eh_frame      0x000000000003c87c        0x4 c:/program files/dspace rcphil 2023-b/compiler/linux_4.14_gcc_10.3/target/x86_64-linux-gnu/bin/../lib/gcc/x86_64-linux-gnu/10.3.0/crtendS.o
 *(.eh_frame.*)

.gcc_except_table
                0x000000000003c880       0x56
 *(.gcc_except_table .gcc_except_table.*)
 .gcc_except_table
                0x000000000003c880       0x14 dssimengine_main.o64
 .gcc_except_table
                0x000000000003c894       0x42 rtosal_task.o64

.gnu_extab
 *(.gnu_extab*)

.exception_ranges
 *(.exception_ranges*)
                0x000000000003e6f8                . = DATA_SEGMENT_ALIGN (CONSTANT (MAXPAGESIZE), CONSTANT (COMMONPAGESIZE))

.eh_frame
 *(.eh_frame)
 *(.eh_frame.*)

.gnu_extab
 *(.gnu_extab)

.gcc_except_table
 *(.gcc_except_table .gcc_except_table.*)

.exception_ranges
 *(.exception_ranges*)

.tdata          0x000000000003e6f8        0x0
                [!provide]                        PROVIDE (__tdata_start = .)
 *(.tdata .tdata.* .gnu.linkonce.td.*)

.tbss
 *(.tbss .tbss.* .gnu.linkonce.tb.*)
 *(.tcommon)

.preinit_array  0x000000000003e6f8        0x0
                [!provide]                        PROVIDE (__preinit_array_start = .)
 *(.preinit_array)
                [!provide]                        PROVIDE (__preinit_array_end = .)

.init_array     0x000000000003e6f8       0x28
                0x000000000003e6f8                PROVIDE (__init_array_start = .)
 *(SORT_BY_INIT_PRIORITY(.init_array.*) SORT_BY_INIT_PRIORITY(.ctors.*))
 *(.init_array EXCLUDE_FILE(*crtend?.o *crtend.o *crtbegin?.o *crtbegin.o) .ctors)
 .init_array    0x000000000003e6f8        0x8 c:/program files/dspace rcphil 2023-b/compiler/linux_4.14_gcc_10.3/target/x86_64-linux-gnu/bin/../lib/gcc/x86_64-linux-gnu/10.3.0/crtbeginS.o
 .ctors         0x000000000003e700       0x10 dssimengine_main.o64
 .ctors         0x000000000003e710        0x8 rtosal_simengineap.o64
 .ctors         0x000000000003e718        0x8 IOCode_Data.o64
                0x000000000003e720                PROVIDE (__init_array_end = .)

.fini_array     0x000000000003e720        0x0
                [!provide]                        PROVIDE (__fini_array_start = .)
 *(SORT_BY_INIT_PRIORITY(.fini_array.*) SORT_BY_INIT_PRIORITY(.dtors.*))
 *(.fini_array EXCLUDE_FILE(*crtend?.o *crtend.o *crtbegin?.o *crtbegin.o) .dtors)
                [!provide]                        PROVIDE (__fini_array_end = .)

.ctors          0x000000000003e720       0x10
 *crtbegin.o(.ctors)
 *crtbegin?.o(.ctors)
 .ctors         0x000000000003e720        0x8 c:/program files/dspace rcphil 2023-b/compiler/linux_4.14_gcc_10.3/target/x86_64-linux-gnu/bin/../lib/gcc/x86_64-linux-gnu/10.3.0/crtbeginS.o
 *(EXCLUDE_FILE(*crtend?.o *crtend.o) .ctors)
 *(SORT_BY_NAME(.ctors.*))
 *(.ctors)
 .ctors         0x000000000003e728        0x8 c:/program files/dspace rcphil 2023-b/compiler/linux_4.14_gcc_10.3/target/x86_64-linux-gnu/bin/../lib/gcc/x86_64-linux-gnu/10.3.0/crtendS.o

.dtors          0x000000000003e730       0x10
 *crtbegin.o(.dtors)
 *crtbegin?.o(.dtors)
 .dtors         0x000000000003e730        0x8 c:/program files/dspace rcphil 2023-b/compiler/linux_4.14_gcc_10.3/target/x86_64-linux-gnu/bin/../lib/gcc/x86_64-linux-gnu/10.3.0/crtbeginS.o
 *(EXCLUDE_FILE(*crtend?.o *crtend.o) .dtors)
 *(SORT_BY_NAME(.dtors.*))
 *(.dtors)
 .dtors         0x000000000003e738        0x8 c:/program files/dspace rcphil 2023-b/compiler/linux_4.14_gcc_10.3/target/x86_64-linux-gnu/bin/../lib/gcc/x86_64-linux-gnu/10.3.0/crtendS.o
                0x000000000003e738                __DTOR_END__

.jcr
 *(.jcr)

.data.rel.ro    0x000000000003e740      0x340
 *(.data.rel.ro.local* .gnu.linkonce.d.rel.ro.local.*)
 .data.rel.ro.local
                0x000000000003e740       0xe0 Bus_Configuration_i1_i12777_CAN.o64
 .data.rel.ro.local
                0x000000000003e820        0x8 C:\Users\MURTI\AppData\Local\Temp\dSPACE\CfgDesk\AppCache\3\Build\EXP_03\Compile\DriveSystemControl\DriveSystemControl.a(DriveSystemControl.o64)
                0x000000000003e820                DriveSystemControl_M
 *(.data.rel.ro .data.rel.ro.* .gnu.linkonce.d.rel.ro.*)
 .data.rel.ro   0x000000000003e828        0x0 c:/program files/dspace rcphil 2023-b/compiler/linux_4.14_gcc_10.3/target/x86_64-linux-gnu/bin/../../x86_64-linux-gnu/lib/Scrt1.o
 .data.rel.ro._ZTI18DsCApplicationMain
                0x000000000003e828       0x18 dssimengine_main.o64
                0x000000000003e828                _ZTI18DsCApplicationMain
 .data.rel.ro._ZTV18DsCApplicationMain
                0x000000000003e840       0x50 dssimengine_main.o64
                0x000000000003e840                _ZTV18DsCApplicationMain
 .data.rel.ro._ZTI24DsCRtosAlPeriodic_Task_1
                0x000000000003e890       0x18 rtosal_task.o64
                0x000000000003e890                _ZTI24DsCRtosAlPeriodic_Task_1
 .data.rel.ro._ZTI26DsCRtosAlBus_Configuration
                0x000000000003e8a8       0x18 rtosal_task.o64
                0x000000000003e8a8                _ZTI26DsCRtosAlBus_Configuration
 .data.rel.ro._ZTI24DsCRtosAlCAN_RX_Task_i1_
                0x000000000003e8c0       0x18 rtosal_task.o64
                0x000000000003e8c0                _ZTI24DsCRtosAlCAN_RX_Task_i1_
 .data.rel.ro._ZTV24DsCRtosAlPeriodic_Task_1
                0x000000000003e8d8       0x30 rtosal_task.o64
                0x000000000003e8d8                _ZTV24DsCRtosAlPeriodic_Task_1
 .data.rel.ro._ZTV26DsCRtosAlBus_Configuration
                0x000000000003e908       0x30 rtosal_task.o64
                0x000000000003e908                _ZTV26DsCRtosAlBus_Configuration
 .data.rel.ro._ZTV24DsCRtosAlCAN_RX_Task_i1_
                0x000000000003e938       0x30 rtosal_task.o64
                0x000000000003e938                _ZTV24DsCRtosAlCAN_RX_Task_i1_
 *fill*         0x000000000003e968       0x18 
 .data.rel.ro   0x000000000003e980      0x100 Bus_Configuration_i1_i12777_CAN.o64

.dynamic        0x000000000003ea80      0x250
 *(.dynamic)
 .dynamic       0x000000000003ea80      0x250 c:/program files/dspace rcphil 2023-b/compiler/linux_4.14_gcc_10.3/target/x86_64-linux-gnu/bin/../../x86_64-linux-gnu/lib/Scrt1.o
                0x000000000003ea80                _DYNAMIC

.got            0x000000000003ecd0      0x328
 *(.got)
 .got           0x000000000003ecd0      0x328 c:/program files/dspace rcphil 2023-b/compiler/linux_4.14_gcc_10.3/target/x86_64-linux-gnu/bin/../../x86_64-linux-gnu/lib/Scrt1.o
 *(.igot)
                0x000000000003ffe8                . = DATA_SEGMENT_RELRO_END (., (SIZEOF (.got.plt) >= 0x18)?0x18:0x0)

.got.plt        0x000000000003f000       0x18
 *(.got.plt)
 .got.plt       0x000000000003f000       0x18 c:/program files/dspace rcphil 2023-b/compiler/linux_4.14_gcc_10.3/target/x86_64-linux-gnu/bin/../../x86_64-linux-gnu/lib/Scrt1.o
                0x000000000003f000                _GLOBAL_OFFSET_TABLE_
 *(.igot.plt)

.data           0x000000000003f020     0x1ee0
 *(.data .data.* .gnu.linkonce.d.*)
 .data          0x000000000003f020        0x4 c:/program files/dspace rcphil 2023-b/compiler/linux_4.14_gcc_10.3/target/x86_64-linux-gnu/bin/../../x86_64-linux-gnu/lib/Scrt1.o
                0x000000000003f020                __data_start
                0x000000000003f020                data_start
 .data          0x000000000003f024        0x0 c:/program files/dspace rcphil 2023-b/compiler/linux_4.14_gcc_10.3/target/x86_64-linux-gnu/bin/../../x86_64-linux-gnu/lib/crti.o
 .data          0x000000000003f024        0x0 c:/program files/dspace rcphil 2023-b/compiler/linux_4.14_gcc_10.3/target/x86_64-linux-gnu/bin/../lib/gcc/x86_64-linux-gnu/10.3.0/crtbeginS.o
 *fill*         0x000000000003f024        0x4 
 .data.rel.local
                0x000000000003f028        0x8 c:/program files/dspace rcphil 2023-b/compiler/linux_4.14_gcc_10.3/target/x86_64-linux-gnu/bin/../lib/gcc/x86_64-linux-gnu/10.3.0/crtbeginS.o
                0x000000000003f028                __dso_handle
 .data          0x000000000003f030       0x3c StateManager_generated.o64
 .data          0x000000000003f06c        0x0 ScalingFunctions.o64
 .data          0x000000000003f06c        0x0 Hashmap.o64
 .data          0x000000000003f06c        0x0 HelperMethods.o64
 .data          0x000000000003f06c        0x0 mdladapter_mdlfunctions.o64
 .data          0x000000000003f06c        0x0 mdlCode_ap.o64
 .data          0x000000000003f06c        0x0 data_in_ap.o64
 .data          0x000000000003f06c        0x0 data_out_ap.o64
 .data          0x000000000003f06c        0x0 fm_entry_ap.o64
 .data          0x000000000003f06c        0x0 fm_exit_ap.o64
 .data          0x000000000003f06c        0x1 dssimengine_accesspoint.o64
                0x000000000003f06c                isFirstSimulation
 .data          0x000000000003f06d        0x0 dssimengine_api.o64
 *fill*         0x000000000003f06d        0x3 
 .data          0x000000000003f070        0xc dssimengine_main.o64
                0x000000000003f070                DsFwIfVersion
                0x000000000003f074                DsApplIfVersion
                0x000000000003f078                SimEngineLastApplState
 *fill*         0x000000000003f07c        0x4 
 .data.rel      0x000000000003f080       0x58 dssimengine_main.o64
                0x000000000003f080                ApplInfoDsCApplicationMain
 .data.rel.local.DW.ref.__gxx_personality_v0
                0x000000000003f0d8        0x8 dssimengine_main.o64
                0x000000000003f0d8                DW.ref.__gxx_personality_v0
 .data          0x000000000003f0e0        0x0 rtosal_task.o64
 .data          0x000000000003f0e0        0x0 rtosal_taskap.o64
 .data          0x000000000003f0e0       0x14 rtosal_simengineap.o64
                0x000000000003f0e0                ScalingFactor
                0x000000000003f0e8                g_dsrtt_comm_enabled
 *fill*         0x000000000003f0f4        0xc 
 .data          0x000000000003f100       0x34 IOCode_Data.o64
                0x000000000003f100                g_ResourceMap
 .data          0x000000000003f134        0x0 dssimengine_accesspoint_CAN.o64
 .data          0x000000000003f134        0x0 IOCode_TestAutomationInit_0.o64
 .data          0x000000000003f134        0x0 BusManager_Bus_Configuration_i1_i12777_1.o64
 *fill*         0x000000000003f134        0x4 
 .data.rel.local
                0x000000000003f138       0x18 BusManager_Bus_Configuration_i1_i12777_1.o64
                0x000000000003f138                BusManager_Bus_Configuration_i1_i12777_1_WIP_M
                0x000000000003f140                BusManager_Bus_Configuration_i1_i12777_1_WIP_S
                0x000000000003f148                BusManager_Bus_Configuration_i1_i12777_1_WIP_I
 .data          0x000000000003f150        0x0 Bus_Configuration_i1_i12777.o64
 .data          0x000000000003f150        0x0 Bus_Configuration_i1_i12777_tx.o64
 *fill*         0x000000000003f150       0x10 
 .data.rel      0x000000000003f160      0x4c0 Bus_Configuration_i1_i12777_tx.o64
                0x000000000003f160                Bus_Configuration_i1_i12777_BusCfgTxPdus
 .data          0x000000000003f620        0x1 Bus_Configuration_i1_i12777_if.o64
                0x000000000003f620                Bus_Configuration_i1_i12777_sw1
 .data          0x000000000003f621        0x0 Bus_Configuration_i1_i12777_CAN.o64
 *fill*         0x000000000003f621       0x1f 
 .data.rel      0x000000000003f640       0x50 Bus_Configuration_i1_i12777_CAN.o64
 *fill*         0x000000000003f690       0x10 
 .data.rel.local
                0x000000000003f6a0       0x30 Bus_Configuration_i1_i12777_CAN.o64
 .data          0x000000000003f6d0        0x0 BusRtCode.o64
 .data.rel      0x000000000003f6d0       0x10 BusRtCode.o64
                0x000000000003f6d0                creditCounter2CanChannel
 .data          0x000000000003f6e0        0x0 ConvertHwTimeToSimTime.o64
 .data          0x000000000003f6e0        0x0 C:\Users\MURTI\AppData\Local\Temp\dSPACE\CfgDesk\AppCache\3\Build\EXP_03\Compile\DriveSystemControl\DriveSystemControl.a(DriveSystemControl_dsrtmdlfcn.o64)
 .data          0x000000000003f6e0        0x0 C:\Users\MURTI\AppData\Local\Temp\dSPACE\CfgDesk\AppCache\3\Build\EXP_03\Compile\DriveSystemControl\DriveSystemControl.a(DriveSystemControl_dsrttf.o64)
 .data          0x000000000003f6e0        0x0 C:\Users\MURTI\AppData\Local\Temp\dSPACE\CfgDesk\AppCache\3\Build\EXP_03\Compile\DriveSystemControl\DriveSystemControl.a(DriveSystemControl.o64)
 .data          0x000000000003f6e0      0x338 C:\Users\MURTI\AppData\Local\Temp\dSPACE\CfgDesk\AppCache\3\Build\EXP_03\Compile\DriveSystemControl\DriveSystemControl.a(DriveSystemControl_data.o64)
                0x000000000003f6e0                DriveSystemControl_P
 .data          0x000000000003fa18        0x0 C:\Users\MURTI\AppData\Local\Temp\dSPACE\CfgDesk\AppCache\3\Build\EXP_03\Compile\DriveSystemControl\DriveSystemControl.a(DriveSystemControl_dsmpb_bd.o64)
 .data          0x000000000003fa18        0x0 C:\Users\MURTI\AppData\Local\Temp\dSPACE\CfgDesk\AppCache\3\Build\EXP_03\Compile\DriveSystemControl\DriveSystemControl.a(DriveSystemControl_dsrtvdf.o64)
 .data          0x000000000003fa18        0x0 C:\Users\MURTI\AppData\Local\Temp\dSPACE\CfgDesk\AppCache\3\Build\EXP_03\Compile\Inspection_12777_1\Inspection_12777_1.a(CanInspection.o64)
 .data          0x000000000003fa18        0x0 C:\Users\MURTI\AppData\Local\Temp\dSPACE\CfgDesk\AppCache\3\Build\EXP_03\Compile\Inspection_12777_1\Inspection_12777_1.a(CanInspection_Cfg.o64)
 *fill*         0x000000000003fa18        0x8 
 .data.rel.local
                0x000000000003fa20       0x50 C:\Users\MURTI\AppData\Local\Temp\dSPACE\CfgDesk\AppCache\3\Build\EXP_03\Compile\Inspection_12777_1\Inspection_12777_1.a(CanInspection_Cfg.o64)
                0x000000000003fa20                BM_BUS_CONFIGURATION_i1_i12777_1_g_CanInspectionConfig
 *fill*         0x000000000003fa70       0x10 
 .data.rel      0x000000000003fa80       0x68 C:\Users\MURTI\AppData\Local\Temp\dSPACE\CfgDesk\AppCache\3\Build\EXP_03\Compile\Inspection_12777_1\Inspection_12777_1.a(CanInspection_Cfg.o64)
 .data          0x000000000003fae8        0x0 C:\Users\MURTI\AppData\Local\Temp\dSPACE\CfgDesk\AppCache\3\Build\EXP_03\Compile\Inspection_12777_1\Inspection_12777_1.a(InspectionInterface.o64)
 .data          0x000000000003fae8        0x1 C:\Users\MURTI\AppData\Local\Temp\dSPACE\CfgDesk\AppCache\3\Build\EXP_03\Compile\BMS_12777_1\BMS_12777_1.a(CanIf.o64)
 *fill*         0x000000000003fae9       0x17 
 .data          0x000000000003fb00       0x80 C:\Users\MURTI\AppData\Local\Temp\dSPACE\CfgDesk\AppCache\3\Build\EXP_03\Compile\BMS_12777_1\BMS_12777_1.a(CanIf_Cfg.o64)
 .data.rel.local
                0x000000000003fb80       0xe8 C:\Users\MURTI\AppData\Local\Temp\dSPACE\CfgDesk\AppCache\3\Build\EXP_03\Compile\BMS_12777_1\BMS_12777_1.a(CanIf_Cfg.o64)
 *fill*         0x000000000003fc68       0x18 
 .data.rel      0x000000000003fc80      0x120 C:\Users\MURTI\AppData\Local\Temp\dSPACE\CfgDesk\AppCache\3\Build\EXP_03\Compile\BMS_12777_1\BMS_12777_1.a(CanIf_Cfg.o64)
 .data          0x000000000003fda0        0x0 C:\Users\MURTI\AppData\Local\Temp\dSPACE\CfgDesk\AppCache\3\Build\EXP_03\Compile\BMS_12777_1\BMS_12777_1.a(CanIf_Cfg_BusAccess.o64)
 .data.rel      0x000000000003fda0        0x8 C:\Users\MURTI\AppData\Local\Temp\dSPACE\CfgDesk\AppCache\3\Build\EXP_03\Compile\BMS_12777_1\BMS_12777_1.a(CanIf_Cfg_BusAccess.o64)
                0x000000000003fda0                BM_BUS_CONFIGURATION_i1_i12777_1_BMS_gp_CanIf_ChannelAddress
 .data          0x000000000003fda8        0x0 C:\Users\MURTI\AppData\Local\Temp\dSPACE\CfgDesk\AppCache\3\Build\EXP_03\Compile\BMS_12777_1\BMS_12777_1.a(Rte_generated.o64)
 .data          0x000000000003fda8        0x0 C:\Users\MURTI\AppData\Local\Temp\dSPACE\CfgDesk\AppCache\3\Build\EXP_03\Compile\BMS_12777_1\BMS_12777_1.a(Com_generated.o64)
 .data          0x000000000003fda8        0x0 C:\Users\MURTI\AppData\Local\Temp\dSPACE\CfgDesk\AppCache\3\Build\EXP_03\Compile\BMS_12777_1\BMS_12777_1.a(Com_Tx_generated.o64)
 .data          0x000000000003fda8        0x0 C:\Users\MURTI\AppData\Local\Temp\dSPACE\CfgDesk\AppCache\3\Build\EXP_03\Compile\BMS_12777_1\BMS_12777_1.a(Com_Rx_generated.o64)
 *fill*         0x000000000003fda8       0x18 
 .data          0x000000000003fdc0       0x40 C:\Users\MURTI\AppData\Local\Temp\dSPACE\CfgDesk\AppCache\3\Build\EXP_03\Compile\BMS_12777_1\BMS_12777_1.a(PduR_Cfg_generated.o64)
 .data.rel.local
                0x000000000003fe00       0x28 C:\Users\MURTI\AppData\Local\Temp\dSPACE\CfgDesk\AppCache\3\Build\EXP_03\Compile\BMS_12777_1\BMS_12777_1.a(PduR_Cfg_generated.o64)
                0x000000000003fe00                BM_BUS_CONFIGURATION_i1_i12777_1_BMS_PduR_Config
 *fill*         0x000000000003fe28       0x18 
 .data.rel      0x000000000003fe40       0x90 C:\Users\MURTI\AppData\Local\Temp\dSPACE\CfgDesk\AppCache\3\Build\EXP_03\Compile\BMS_12777_1\BMS_12777_1.a(PduR_Cfg_generated.o64)
 .data          0x000000000003fed0        0x0 C:\Users\MURTI\AppData\Local\Temp\dSPACE\CfgDesk\AppCache\3\Build\EXP_03\Compile\BMS_12777_1\BMS_12777_1.a(PduR_generated.o64)
 .data          0x000000000003fed0        0x0 C:\Users\MURTI\AppData\Local\Temp\dSPACE\CfgDesk\AppCache\3\Build\EXP_03\Compile\BMS_12777_1\BMS_12777_1.a(SchM_CanIf.o64)
 .data          0x000000000003fed0        0x1 C:\Users\MURTI\AppData\Local\Temp\dSPACE\CfgDesk\AppCache\3\Build\EXP_03\Compile\IPC_12777_1\IPC_12777_1.a(CanIf.o64)
 *fill*         0x000000000003fed1        0xf 
 .data          0x000000000003fee0       0x48 C:\Users\MURTI\AppData\Local\Temp\dSPACE\CfgDesk\AppCache\3\Build\EXP_03\Compile\IPC_12777_1\IPC_12777_1.a(CanIf_Cfg.o64)
 *fill*         0x000000000003ff28       0x18 
 .data.rel.local
                0x000000000003ff40       0xe8 C:\Users\MURTI\AppData\Local\Temp\dSPACE\CfgDesk\AppCache\3\Build\EXP_03\Compile\IPC_12777_1\IPC_12777_1.a(CanIf_Cfg.o64)
 *fill*         0x0000000000040028       0x18 
 .data.rel      0x0000000000040040      0x1a8 C:\Users\MURTI\AppData\Local\Temp\dSPACE\CfgDesk\AppCache\3\Build\EXP_03\Compile\IPC_12777_1\IPC_12777_1.a(CanIf_Cfg.o64)
 .data          0x00000000000401e8        0x0 C:\Users\MURTI\AppData\Local\Temp\dSPACE\CfgDesk\AppCache\3\Build\EXP_03\Compile\IPC_12777_1\IPC_12777_1.a(CanIf_Cfg_BusAccess.o64)
 .data.rel      0x00000000000401e8        0x8 C:\Users\MURTI\AppData\Local\Temp\dSPACE\CfgDesk\AppCache\3\Build\EXP_03\Compile\IPC_12777_1\IPC_12777_1.a(CanIf_Cfg_BusAccess.o64)
                0x00000000000401e8                BM_BUS_CONFIGURATION_i1_i12777_1_IPC_gp_CanIf_ChannelAddress
 .data          0x00000000000401f0        0x0 C:\Users\MURTI\AppData\Local\Temp\dSPACE\CfgDesk\AppCache\3\Build\EXP_03\Compile\IPC_12777_1\IPC_12777_1.a(Rte_generated.o64)
 .data          0x00000000000401f0        0x0 C:\Users\MURTI\AppData\Local\Temp\dSPACE\CfgDesk\AppCache\3\Build\EXP_03\Compile\IPC_12777_1\IPC_12777_1.a(Com_generated.o64)
 .data          0x00000000000401f0        0x0 C:\Users\MURTI\AppData\Local\Temp\dSPACE\CfgDesk\AppCache\3\Build\EXP_03\Compile\IPC_12777_1\IPC_12777_1.a(Com_Tx_generated.o64)
 .data          0x00000000000401f0        0x0 C:\Users\MURTI\AppData\Local\Temp\dSPACE\CfgDesk\AppCache\3\Build\EXP_03\Compile\IPC_12777_1\IPC_12777_1.a(Com_Rx_generated.o64)
 *fill*         0x00000000000401f0       0x10 
 .data          0x0000000000040200       0x28 C:\Users\MURTI\AppData\Local\Temp\dSPACE\CfgDesk\AppCache\3\Build\EXP_03\Compile\IPC_12777_1\IPC_12777_1.a(PduR_Cfg_generated.o64)
 *fill*         0x0000000000040228       0x18 
 .data.rel.local
                0x0000000000040240       0x28 C:\Users\MURTI\AppData\Local\Temp\dSPACE\CfgDesk\AppCache\3\Build\EXP_03\Compile\IPC_12777_1\IPC_12777_1.a(PduR_Cfg_generated.o64)
                0x0000000000040240                BM_BUS_CONFIGURATION_i1_i12777_1_IPC_PduR_Config
 *fill*         0x0000000000040268       0x18 
 .data.rel      0x0000000000040280       0x90 C:\Users\MURTI\AppData\Local\Temp\dSPACE\CfgDesk\AppCache\3\Build\EXP_03\Compile\IPC_12777_1\IPC_12777_1.a(PduR_Cfg_generated.o64)
 .data          0x0000000000040310        0x0 C:\Users\MURTI\AppData\Local\Temp\dSPACE\CfgDesk\AppCache\3\Build\EXP_03\Compile\IPC_12777_1\IPC_12777_1.a(PduR_generated.o64)
 .data          0x0000000000040310        0x0 C:\Users\MURTI\AppData\Local\Temp\dSPACE\CfgDesk\AppCache\3\Build\EXP_03\Compile\IPC_12777_1\IPC_12777_1.a(SchM_CanIf.o64)
 .data          0x0000000000040310        0x1 C:\Users\MURTI\AppData\Local\Temp\dSPACE\CfgDesk\AppCache\3\Build\EXP_03\Compile\TCU_12777_1\TCU_12777_1.a(CanIf.o64)
 *fill*         0x0000000000040311        0xf 
 .data          0x0000000000040320       0xc0 C:\Users\MURTI\AppData\Local\Temp\dSPACE\CfgDesk\AppCache\3\Build\EXP_03\Compile\TCU_12777_1\TCU_12777_1.a(CanIf_Cfg.o64)
 .data.rel.local
                0x00000000000403e0       0xe8 C:\Users\MURTI\AppData\Local\Temp\dSPACE\CfgDesk\AppCache\3\Build\EXP_03\Compile\TCU_12777_1\TCU_12777_1.a(CanIf_Cfg.o64)
 *fill*         0x00000000000404c8       0x18 
 .data.rel      0x00000000000404e0      0x220 C:\Users\MURTI\AppData\Local\Temp\dSPACE\CfgDesk\AppCache\3\Build\EXP_03\Compile\TCU_12777_1\TCU_12777_1.a(CanIf_Cfg.o64)
 .data          0x0000000000040700        0x0 C:\Users\MURTI\AppData\Local\Temp\dSPACE\CfgDesk\AppCache\3\Build\EXP_03\Compile\TCU_12777_1\TCU_12777_1.a(CanIf_Cfg_BusAccess.o64)
 .data.rel      0x0000000000040700        0x8 C:\Users\MURTI\AppData\Local\Temp\dSPACE\CfgDesk\AppCache\3\Build\EXP_03\Compile\TCU_12777_1\TCU_12777_1.a(CanIf_Cfg_BusAccess.o64)
                0x0000000000040700                BM_BUS_CONFIGURATION_i1_i12777_1_TCU_gp_CanIf_ChannelAddress
 .data          0x0000000000040708        0x0 C:\Users\MURTI\AppData\Local\Temp\dSPACE\CfgDesk\AppCache\3\Build\EXP_03\Compile\TCU_12777_1\TCU_12777_1.a(Rte_generated.o64)
 .data          0x0000000000040708        0x0 C:\Users\MURTI\AppData\Local\Temp\dSPACE\CfgDesk\AppCache\3\Build\EXP_03\Compile\TCU_12777_1\TCU_12777_1.a(Com_generated.o64)
 .data          0x0000000000040708        0x0 C:\Users\MURTI\AppData\Local\Temp\dSPACE\CfgDesk\AppCache\3\Build\EXP_03\Compile\TCU_12777_1\TCU_12777_1.a(Com_Tx_generated.o64)
 .data          0x0000000000040708        0x0 C:\Users\MURTI\AppData\Local\Temp\dSPACE\CfgDesk\AppCache\3\Build\EXP_03\Compile\TCU_12777_1\TCU_12777_1.a(Com_Rx_generated.o64)
 *fill*         0x0000000000040708       0x18 
 .data          0x0000000000040720       0xc0 C:\Users\MURTI\AppData\Local\Temp\dSPACE\CfgDesk\AppCache\3\Build\EXP_03\Compile\TCU_12777_1\TCU_12777_1.a(PduR_Cfg_generated.o64)
 .data.rel.local
                0x00000000000407e0       0x28 C:\Users\MURTI\AppData\Local\Temp\dSPACE\CfgDesk\AppCache\3\Build\EXP_03\Compile\TCU_12777_1\TCU_12777_1.a(PduR_Cfg_generated.o64)
                0x00000000000407e0                BM_BUS_CONFIGURATION_i1_i12777_1_TCU_PduR_Config
 *fill*         0x0000000000040808       0x18 
 .data.rel      0x0000000000040820       0x90 C:\Users\MURTI\AppData\Local\Temp\dSPACE\CfgDesk\AppCache\3\Build\EXP_03\Compile\TCU_12777_1\TCU_12777_1.a(PduR_Cfg_generated.o64)
 .data          0x00000000000408b0        0x0 C:\Users\MURTI\AppData\Local\Temp\dSPACE\CfgDesk\AppCache\3\Build\EXP_03\Compile\TCU_12777_1\TCU_12777_1.a(PduR_generated.o64)
 .data          0x00000000000408b0        0x0 C:\Users\MURTI\AppData\Local\Temp\dSPACE\CfgDesk\AppCache\3\Build\EXP_03\Compile\TCU_12777_1\TCU_12777_1.a(SchM_CanIf.o64)
 .data          0x00000000000408b0        0x1 C:\Users\MURTI\AppData\Local\Temp\dSPACE\CfgDesk\AppCache\3\Build\EXP_03\Compile\Telematics_12777_1\Telematics_12777_1.a(CanIf.o64)
 *fill*         0x00000000000408b1        0xf 
 .data          0x00000000000408c0       0x48 C:\Users\MURTI\AppData\Local\Temp\dSPACE\CfgDesk\AppCache\3\Build\EXP_03\Compile\Telematics_12777_1\Telematics_12777_1.a(CanIf_Cfg.o64)
 *fill*         0x0000000000040908       0x18 
 .data.rel.local
                0x0000000000040920       0xe8 C:\Users\MURTI\AppData\Local\Temp\dSPACE\CfgDesk\AppCache\3\Build\EXP_03\Compile\Telematics_12777_1\Telematics_12777_1.a(CanIf_Cfg.o64)
 *fill*         0x0000000000040a08       0x18 
 .data.rel      0x0000000000040a20      0x238 C:\Users\MURTI\AppData\Local\Temp\dSPACE\CfgDesk\AppCache\3\Build\EXP_03\Compile\Telematics_12777_1\Telematics_12777_1.a(CanIf_Cfg.o64)
 .data          0x0000000000040c58        0x0 C:\Users\MURTI\AppData\Local\Temp\dSPACE\CfgDesk\AppCache\3\Build\EXP_03\Compile\Telematics_12777_1\Telematics_12777_1.a(CanIf_Cfg_BusAccess.o64)
 .data.rel      0x0000000000040c58        0x8 C:\Users\MURTI\AppData\Local\Temp\dSPACE\CfgDesk\AppCache\3\Build\EXP_03\Compile\Telematics_12777_1\Telematics_12777_1.a(CanIf_Cfg_BusAccess.o64)
                0x0000000000040c58                BM_BUS_CONFIGURATION_i1_i12777_1_TELEMATICS_gp_CanIf_ChannelAddress
 .data          0x0000000000040c60        0x0 C:\Users\MURTI\AppData\Local\Temp\dSPACE\CfgDesk\AppCache\3\Build\EXP_03\Compile\Telematics_12777_1\Telematics_12777_1.a(Rte_generated.o64)
 .data          0x0000000000040c60        0x0 C:\Users\MURTI\AppData\Local\Temp\dSPACE\CfgDesk\AppCache\3\Build\EXP_03\Compile\Telematics_12777_1\Telematics_12777_1.a(Com_generated.o64)
 .data          0x0000000000040c60        0x0 C:\Users\MURTI\AppData\Local\Temp\dSPACE\CfgDesk\AppCache\3\Build\EXP_03\Compile\Telematics_12777_1\Telematics_12777_1.a(Com_Tx_generated.o64)
 .data          0x0000000000040c60        0x0 C:\Users\MURTI\AppData\Local\Temp\dSPACE\CfgDesk\AppCache\3\Build\EXP_03\Compile\Telematics_12777_1\Telematics_12777_1.a(Com_Rx_generated.o64)
 .data          0x0000000000040c60       0x38 C:\Users\MURTI\AppData\Local\Temp\dSPACE\CfgDesk\AppCache\3\Build\EXP_03\Compile\Telematics_12777_1\Telematics_12777_1.a(PduR_Cfg_generated.o64)
 *fill*         0x0000000000040c98        0x8 
 .data.rel.local
                0x0000000000040ca0       0x28 C:\Users\MURTI\AppData\Local\Temp\dSPACE\CfgDesk\AppCache\3\Build\EXP_03\Compile\Telematics_12777_1\Telematics_12777_1.a(PduR_Cfg_generated.o64)
                0x0000000000040ca0                BM_BUS_CONFIGURATION_i1_i12777_1_TELEMATICS_PduR_Config
 *fill*         0x0000000000040cc8       0x18 
 .data.rel      0x0000000000040ce0       0x90 C:\Users\MURTI\AppData\Local\Temp\dSPACE\CfgDesk\AppCache\3\Build\EXP_03\Compile\Telematics_12777_1\Telematics_12777_1.a(PduR_Cfg_generated.o64)
 .data          0x0000000000040d70        0x0 C:\Users\MURTI\AppData\Local\Temp\dSPACE\CfgDesk\AppCache\3\Build\EXP_03\Compile\Telematics_12777_1\Telematics_12777_1.a(PduR_generated.o64)
 .data          0x0000000000040d70        0x0 C:\Users\MURTI\AppData\Local\Temp\dSPACE\CfgDesk\AppCache\3\Build\EXP_03\Compile\Telematics_12777_1\Telematics_12777_1.a(SchM_CanIf.o64)
 .data          0x0000000000040d70        0x0 C:\Users\MURTI\AppData\Local\Temp\dSPACE\CfgDesk\AppCache\3\Build\EXP_03\Compile\Manipulation_12777_1\Manipulation_12777_1.a(CanManipulation.o64)
 .data          0x0000000000040d70        0x0 C:\Users\MURTI\AppData\Local\Temp\dSPACE\CfgDesk\AppCache\3\Build\EXP_03\Compile\Manipulation_12777_1\Manipulation_12777_1.a(CanManipulation_Cfg.o64)
 *fill*         0x0000000000040d70       0x10 
 .data.rel.local
                0x0000000000040d80       0x50 C:\Users\MURTI\AppData\Local\Temp\dSPACE\CfgDesk\AppCache\3\Build\EXP_03\Compile\Manipulation_12777_1\Manipulation_12777_1.a(CanManipulation_Cfg.o64)
                0x0000000000040d80                BM_BUS_CONFIGURATION_i1_i12777_1_g_CanManipulationConfig
 *fill*         0x0000000000040dd0       0x10 
 .data.rel      0x0000000000040de0      0x120 C:\Users\MURTI\AppData\Local\Temp\dSPACE\CfgDesk\AppCache\3\Build\EXP_03\Compile\Manipulation_12777_1\Manipulation_12777_1.a(CanManipulation_Cfg.o64)
 .data          0x0000000000040f00        0x0 C:\Users\MURTI\AppData\Local\Temp\dSPACE\CfgDesk\AppCache\3\Build\EXP_03\Compile\Manipulation_12777_1\Manipulation_12777_1.a(CAN0_0.o64)
 .data          0x0000000000040f00        0x0 C:\Users\MURTI\AppData\Local\Temp\dSPACE\CfgDesk\AppCache\3\Build\EXP_03\Compile\Manipulation_12777_1\Manipulation_12777_1.a(ManipulationInterface.o64)
 .data          0x0000000000040f00        0x0 C:\Users\MURTI\AppData\Local\Temp\dSPACE\CfgDesk\AppCache\3\Build\EXP_03\Compile\Manipulation_12777_1\Manipulation_12777_1.a(ManipulationInit_0.o64)
 .data          0x0000000000040f00        0x0 C:\Users\MURTI\AppData\Local\Temp\dSPACE\CfgDesk\AppCache\3\Build\EXP_03\Compile\ManipulationHook_21408\ManipulationHook_21408.a(ManipulationHook.o64)
 .data          0x0000000000040f00        0x0 C:\Program Files\dSPACE RCPHIL 2023-B\Compiler\Linux_4.14_GCC_10.3\target\x86_64-linux-gnu\lib\libc_nonshared.a(elf-init.oS)
 .data          0x0000000000040f00        0x0 c:/program files/dspace rcphil 2023-b/compiler/linux_4.14_gcc_10.3/target/x86_64-linux-gnu/bin/../lib/gcc/x86_64-linux-gnu/10.3.0/crtendS.o
 .data          0x0000000000040f00        0x0 c:/program files/dspace rcphil 2023-b/compiler/linux_4.14_gcc_10.3/target/x86_64-linux-gnu/bin/../../x86_64-linux-gnu/lib/crtn.o

.tm_clone_table
                0x0000000000040f00        0x0
 .tm_clone_table
                0x0000000000040f00        0x0 c:/program files/dspace rcphil 2023-b/compiler/linux_4.14_gcc_10.3/target/x86_64-linux-gnu/bin/../lib/gcc/x86_64-linux-gnu/10.3.0/crtbeginS.o
 .tm_clone_table
                0x0000000000040f00        0x0 c:/program files/dspace rcphil 2023-b/compiler/linux_4.14_gcc_10.3/target/x86_64-linux-gnu/bin/../lib/gcc/x86_64-linux-gnu/10.3.0/crtendS.o

.data1
 *(.data1)
                0x0000000000040f00                _edata = .
                [!provide]                        PROVIDE (edata = .)
                0x0000000000040f00                . = .
                0x0000000000040f00                __bss_start = .

.bss            0x0000000000040f00     0x42f8
 *(.dynbss)
 .dynbss        0x0000000000040f00        0x0 c:/program files/dspace rcphil 2023-b/compiler/linux_4.14_gcc_10.3/target/x86_64-linux-gnu/bin/../../x86_64-linux-gnu/lib/Scrt1.o
 *(.bss .bss.* .gnu.linkonce.b.*)
 .bss           0x0000000000040f00        0x0 c:/program files/dspace rcphil 2023-b/compiler/linux_4.14_gcc_10.3/target/x86_64-linux-gnu/bin/../../x86_64-linux-gnu/lib/Scrt1.o
 .bss           0x0000000000040f00        0x0 c:/program files/dspace rcphil 2023-b/compiler/linux_4.14_gcc_10.3/target/x86_64-linux-gnu/bin/../../x86_64-linux-gnu/lib/crti.o
 .bss           0x0000000000040f00       0x10 c:/program files/dspace rcphil 2023-b/compiler/linux_4.14_gcc_10.3/target/x86_64-linux-gnu/bin/../lib/gcc/x86_64-linux-gnu/10.3.0/crtbeginS.o
 *fill*         0x0000000000040f10       0x10 
 .bss           0x0000000000040f20       0xc9 StateManager_generated.o64
 .bss           0x0000000000040fe9        0x0 ScalingFunctions.o64
 .bss           0x0000000000040fe9        0x0 Hashmap.o64
 .bss           0x0000000000040fe9        0x0 HelperMethods.o64
 .bss           0x0000000000040fe9        0x0 mdladapter_mdlfunctions.o64
 .bss           0x0000000000040fe9        0x0 mdlCode_ap.o64
 .bss           0x0000000000040fe9        0x0 data_in_ap.o64
 .bss           0x0000000000040fe9        0x0 data_out_ap.o64
 .bss           0x0000000000040fe9        0x0 fm_entry_ap.o64
 .bss           0x0000000000040fe9        0x0 fm_exit_ap.o64
 *fill*         0x0000000000040fe9        0x7 
 .bss           0x0000000000040ff0       0x88 dssimengine_accesspoint.o64
                0x0000000000040ff0                xilApiEesPortTrigger
                0x0000000000040ff8                xilApiEesPortFlags
                0x0000000000041000                pXilApiEesPortFsxErrorSwitching
                0x0000000000041008                pXilApiEesPortFsxErrorActivated
                0x0000000000041010                pXilApiEesPortFsxActiveErrorSet
                0x0000000000041018                pXilApiEesPortErrorSwitching
                0x0000000000041020                pXilApiEesPortErrorActivated
                0x0000000000041028                pXilApiEesPortActiveErrorSet
                0x0000000000041030                pFailureSimulationRelaySwitching
                0x0000000000041038                pFailureSimulationSequenceCount
                0x0000000000041040                pFailureSimulationFailureActivated
                0x0000000000041048                pFailureSimulationFailureConfigured
                0x0000000000041050                pFailureSimulationClientConnected
                0x0000000000041058                pAppMaximumMemoryUsage
                0x0000000000041060                pAppCurrentMemoryUsage
                0x0000000000041068                pFuseRestoreRequest
                0x0000000000041070                pFuseActualStatus
 .bss           0x0000000000041078        0x0 dssimengine_api.o64
 .bss           0x0000000000041078       0x10 dssimengine_main.o64
                0x0000000000041078                _ZN18DsCApplicationMain11s_pInstanceE
                0x0000000000041080                ErrorList
 .bss           0x0000000000041088       0x60 rtosal_task.o64
                0x0000000000041088                StepCounter_Bus_Configuration
                0x0000000000041090                RtosAlTaskSimTime_Bus_Configuration
                0x0000000000041098                StepCounter_Periodic_Task_1
                0x00000000000410a0                RtosAlTaskSimTime_Periodic_Task_1
                0x00000000000410a8                pRtosAlTimer_Bus_Configuration
                0x00000000000410b0                pRtosAlTimer_Periodic_Task_1
                0x00000000000410b8                pRtosAlCAN_RX_Task_i1_
                0x00000000000410c0                pRtosAlBus_Configuration
                0x00000000000410c8                pRtosAlPeriodic_Task_1
                0x00000000000410d0                _ZN24DsCRtosAlCAN_RX_Task_i1_11m_pInstanceE
                0x00000000000410d8                _ZN26DsCRtosAlBus_Configuration11m_pInstanceE
                0x00000000000410e0                _ZN24DsCRtosAlPeriodic_Task_111m_pInstanceE
 .bss           0x00000000000410e8        0x0 rtosal_taskap.o64
 *fill*         0x00000000000410e8       0x18 
 .bss           0x0000000000041100      0x118 rtosal_simengineap.o64
                0x0000000000041100                CAN_RX_Task_i1_Vars_OvnCounter
                0x0000000000041100                CAN_RX_Task_i1_Vars
                0x0000000000041108                CAN_RX_Task_i1_Vars_TurnaroundTime
                0x0000000000041110                CAN_RX_Task_i1_Vars_Calls
                0x0000000000041118                CAN_RX_Task_i1_Vars_QueueCounter
                0x0000000000041120                CAN_RX_Task_i1_Vars_AbsoluteTime
                0x0000000000041160                Bus_ConfigurationVars_OvnCounter
                0x0000000000041160                Bus_ConfigurationVars
                0x0000000000041168                Bus_ConfigurationVars_TurnaroundTime
                0x0000000000041170                Bus_ConfigurationVars_Calls
                0x0000000000041178                Bus_ConfigurationVars_QueueCounter
                0x0000000000041180                Bus_ConfigurationVars_AbsoluteTime
                0x00000000000411c0                Periodic_Task_1Vars_OvnCounter
                0x00000000000411c0                Periodic_Task_1Vars
                0x00000000000411c8                Periodic_Task_1Vars_TurnaroundTime
                0x00000000000411d0                Periodic_Task_1Vars_Calls
                0x00000000000411d8                Periodic_Task_1Vars_QueueCounter
                0x00000000000411e0                Periodic_Task_1Vars_AbsoluteTime
                0x0000000000041210                ScaledTimeInterval
 .bss           0x0000000000041218     0x1f50 IOCode_Data.o64
                0x0000000000041218                drivesystemcontrol_fcnModule_SIDRoot_TID0
                0x0000000000041220                bus_Configuration_1_sigMCU5_DriveMode_Overwrite_Value_TA_Replacevalue
                0x0000000000041221                bus_Configuration_1_sigMCU5_DriveMode_Overwrite_Value_TA_Switchvalue
                0x0000000000041222                bus_Configuration_1_sigMCU5_DriveMode_Overwrite_Value_IO_Signal
                0x0000000000041223                bus_Configuration_1_sigMCU5_DriveMode_Overwrite_Value_MDL_Signal
                0x0000000000041224                bus_Configuration_1_sigMCU5_DriveMode_Feature_Switch_TA_Replacevalue
                0x0000000000041228                bus_Configuration_1_sigMCU5_DriveMode_Feature_Switch_TA_Switchvalue
                0x000000000004122c                bus_Configuration_1_sigMCU5_DriveMode_Feature_Switch_IO_Signal
                0x0000000000041230                bus_Configuration_1_sigMCU5_DriveMode_Feature_Switch_MDL_Signal
                0x0000000000041234                bus_Configuration_1_sigMCU5_DriveMode_Countdown_Start_Value_TA_Replacevalue
                0x0000000000041238                bus_Configuration_1_sigMCU5_DriveMode_Countdown_Start_Value_TA_Switchvalue
                0x000000000004123c                bus_Configuration_1_sigMCU5_DriveMode_Countdown_Start_Value_IO_Signal
                0x0000000000041240                bus_Configuration_1_sigMCU5_DriveMode_Countdown_Start_Value_MDL_Signal
                0x0000000000041244                bus_Configuration_1_sigMCU5_RegenFlag_Overwrite_Value_TA_Replacevalue
                0x0000000000041245                bus_Configuration_1_sigMCU5_RegenFlag_Overwrite_Value_TA_Switchvalue
                0x0000000000041246                bus_Configuration_1_sigMCU5_RegenFlag_Overwrite_Value_IO_Signal
                0x0000000000041247                bus_Configuration_1_sigMCU5_RegenFlag_Overwrite_Value_MDL_Signal
                0x0000000000041248                bus_Configuration_1_sigMCU5_RegenFlag_Feature_Switch_TA_Replacevalue
                0x000000000004124c                bus_Configuration_1_sigMCU5_RegenFlag_Feature_Switch_TA_Switchvalue
                0x0000000000041250                bus_Configuration_1_sigMCU5_RegenFlag_Feature_Switch_IO_Signal
                0x0000000000041254                bus_Configuration_1_sigMCU5_RegenFlag_Feature_Switch_MDL_Signal
                0x0000000000041258                bus_Configuration_1_sigMCU5_RegenFlag_Countdown_Start_Value_TA_Replacevalue
                0x000000000004125c                bus_Configuration_1_sigMCU5_RegenFlag_Countdown_Start_Value_TA_Switchvalue
                0x0000000000041260                bus_Configuration_1_sigMCU5_RegenFlag_Countdown_Start_Value_IO_Signal
                0x0000000000041264                bus_Configuration_1_sigMCU5_RegenFlag_Countdown_Start_Value_MDL_Signal
                0x0000000000041268                bus_Configuration_1_sigMCU5_Speed_Overwrite_Value_TA_Replacevalue
                0x0000000000041269                bus_Configuration_1_sigMCU5_Speed_Overwrite_Value_TA_Switchvalue
                0x000000000004126a                bus_Configuration_1_sigMCU5_Speed_Overwrite_Value_IO_Signal
                0x000000000004126b                bus_Configuration_1_sigMCU5_Speed_Overwrite_Value_MDL_Signal
                0x000000000004126c                bus_Configuration_1_sigMCU5_Speed_Feature_Switch_TA_Replacevalue
                0x0000000000041270                bus_Configuration_1_sigMCU5_Speed_Feature_Switch_TA_Switchvalue
                0x0000000000041274                bus_Configuration_1_sigMCU5_Speed_Feature_Switch_IO_Signal
                0x0000000000041278                bus_Configuration_1_sigMCU5_Speed_Feature_Switch_MDL_Signal
                0x000000000004127c                bus_Configuration_1_sigMCU5_Speed_Countdown_Start_Value_TA_Replacevalue
                0x0000000000041280                bus_Configuration_1_sigMCU5_Speed_Countdown_Start_Value_TA_Switchvalue
                0x0000000000041284                bus_Configuration_1_sigMCU5_Speed_Countdown_Start_Value_IO_Signal
                0x0000000000041288                bus_Configuration_1_sigMCU5_Speed_Countdown_Start_Value_MDL_Signal
                0x000000000004128c                bus_Configuration_1_sigMCU5_Hillhold_Overwrite_Value_TA_Replacevalue
                0x000000000004128d                bus_Configuration_1_sigMCU5_Hillhold_Overwrite_Value_TA_Switchvalue
                0x000000000004128e                bus_Configuration_1_sigMCU5_Hillhold_Overwrite_Value_IO_Signal
                0x000000000004128f                bus_Configuration_1_sigMCU5_Hillhold_Overwrite_Value_MDL_Signal
                0x0000000000041290                bus_Configuration_1_sigMCU5_Hillhold_Feature_Switch_TA_Replacevalue
                0x0000000000041294                bus_Configuration_1_sigMCU5_Hillhold_Feature_Switch_TA_Switchvalue
                0x0000000000041298                bus_Configuration_1_sigMCU5_Hillhold_Feature_Switch_IO_Signal
                0x000000000004129c                bus_Configuration_1_sigMCU5_Hillhold_Feature_Switch_MDL_Signal
                0x00000000000412a0                bus_Configuration_1_sigMCU5_Hillhold_Countdown_Start_Value_TA_Replacevalue
                0x00000000000412a4                bus_Configuration_1_sigMCU5_Hillhold_Countdown_Start_Value_TA_Switchvalue
                0x00000000000412a8                bus_Configuration_1_sigMCU5_Hillhold_Countdown_Start_Value_IO_Signal
                0x00000000000412ac                bus_Configuration_1_sigMCU5_Hillhold_Countdown_Start_Value_MDL_Signal
                0x00000000000412b0                bus_Configuration_1_sigMCU5_Efficiency_Overwrite_Value_TA_Replacevalue
                0x00000000000412b1                bus_Configuration_1_sigMCU5_Efficiency_Overwrite_Value_TA_Switchvalue
                0x00000000000412b2                bus_Configuration_1_sigMCU5_Efficiency_Overwrite_Value_IO_Signal
                0x00000000000412b3                bus_Configuration_1_sigMCU5_Efficiency_Overwrite_Value_MDL_Signal
                0x00000000000412b4                bus_Configuration_1_sigMCU5_Efficiency_Feature_Switch_TA_Replacevalue
                0x00000000000412b8                bus_Configuration_1_sigMCU5_Efficiency_Feature_Switch_TA_Switchvalue
                0x00000000000412bc                bus_Configuration_1_sigMCU5_Efficiency_Feature_Switch_IO_Signal
                0x00000000000412c0                bus_Configuration_1_sigMCU5_Efficiency_Feature_Switch_MDL_Signal
                0x00000000000412c4                bus_Configuration_1_sigMCU5_Efficiency_Countdown_Start_Value_TA_Replacevalue
                0x00000000000412c8                bus_Configuration_1_sigMCU5_Efficiency_Countdown_Start_Value_TA_Switchvalue
                0x00000000000412cc                bus_Configuration_1_sigMCU5_Efficiency_Countdown_Start_Value_IO_Signal
                0x00000000000412d0                bus_Configuration_1_sigMCU5_Efficiency_Countdown_Start_Value_MDL_Signal
                0x00000000000412d8                bus_Configuration_1_sigBatteryCurrent_Overwrite_Value_TA_Replacevalue
                0x00000000000412e0                bus_Configuration_1_sigBatteryCurrent_Overwrite_Value_TA_Switchvalue
                0x00000000000412e8                bus_Configuration_1_sigBatteryCurrent_Overwrite_Value_IO_Signal
                0x00000000000412f0                bus_Configuration_1_sigBatteryCurrent_Overwrite_Value_MDL_Signal
                0x00000000000412f8                BM_value_16344
                0x0000000000041300                bus_Configuration_1_sigBatteryCurrent_Feature_Switch_TA_Replacevalue
                0x0000000000041304                bus_Configuration_1_sigBatteryCurrent_Feature_Switch_TA_Switchvalue
                0x0000000000041308                bus_Configuration_1_sigBatteryCurrent_Feature_Switch_IO_Signal
                0x000000000004130c                bus_Configuration_1_sigBatteryCurrent_Feature_Switch_MDL_Signal
                0x0000000000041310                bus_Configuration_1_sigBatteryCurrent_Countdown_Start_Value_TA_Replacevalue
                0x0000000000041314                bus_Configuration_1_sigBatteryCurrent_Countdown_Start_Value_TA_Switchvalue
                0x0000000000041318                bus_Configuration_1_sigBatteryCurrent_Countdown_Start_Value_IO_Signal
                0x000000000004131c                bus_Configuration_1_sigBatteryCurrent_Countdown_Start_Value_MDL_Signal
                0x0000000000041320                bus_Configuration_1_sigDriveCurrentLimit_Overwrite_Value_TA_Replacevalue
                0x0000000000041321                bus_Configuration_1_sigDriveCurrentLimit_Overwrite_Value_TA_Switchvalue
                0x0000000000041322                bus_Configuration_1_sigDriveCurrentLimit_Overwrite_Value_IO_Signal
                0x0000000000041323                bus_Configuration_1_sigDriveCurrentLimit_Overwrite_Value_MDL_Signal
                0x0000000000041324                bus_Configuration_1_sigDriveCurrentLimit_Feature_Switch_TA_Replacevalue
                0x0000000000041328                bus_Configuration_1_sigDriveCurrentLimit_Feature_Switch_TA_Switchvalue
                0x000000000004132c                bus_Configuration_1_sigDriveCurrentLimit_Feature_Switch_IO_Signal
                0x0000000000041330                bus_Configuration_1_sigDriveCurrentLimit_Feature_Switch_MDL_Signal
                0x0000000000041334                bus_Configuration_1_sigDriveCurrentLimit_Countdown_Start_Value_TA_Replacevalue
                0x0000000000041338                bus_Configuration_1_sigDriveCurrentLimit_Countdown_Start_Value_TA_Switchvalue
                0x000000000004133c                bus_Configuration_1_sigDriveCurrentLimit_Countdown_Start_Value_IO_Signal
                0x0000000000041340                bus_Configuration_1_sigDriveCurrentLimit_Countdown_Start_Value_MDL_Signal
                0x0000000000041344                bus_Configuration_1_sigRegenCurrentLimit_Overwrite_Value_TA_Replacevalue
                0x0000000000041345                bus_Configuration_1_sigRegenCurrentLimit_Overwrite_Value_TA_Switchvalue
                0x0000000000041346                bus_Configuration_1_sigRegenCurrentLimit_Overwrite_Value_IO_Signal
                0x0000000000041347                bus_Configuration_1_sigRegenCurrentLimit_Overwrite_Value_MDL_Signal
                0x0000000000041348                bus_Configuration_1_sigRegenCurrentLimit_Feature_Switch_TA_Replacevalue
                0x000000000004134c                bus_Configuration_1_sigRegenCurrentLimit_Feature_Switch_TA_Switchvalue
                0x0000000000041350                bus_Configuration_1_sigRegenCurrentLimit_Feature_Switch_IO_Signal
                0x0000000000041354                bus_Configuration_1_sigRegenCurrentLimit_Feature_Switch_MDL_Signal
                0x0000000000041358                bus_Configuration_1_sigRegenCurrentLimit_Countdown_Start_Value_TA_Replacevalue
                0x000000000004135c                bus_Configuration_1_sigRegenCurrentLimit_Countdown_Start_Value_TA_Switchvalue
                0x0000000000041360                bus_Configuration_1_sigRegenCurrentLimit_Countdown_Start_Value_IO_Signal
                0x0000000000041364                bus_Configuration_1_sigRegenCurrentLimit_Countdown_Start_Value_MDL_Signal
                0x0000000000041368                bus_Configuration_1_sigVehicleModeRequest_Overwrite_Value_TA_Replacevalue
                0x0000000000041369                bus_Configuration_1_sigVehicleModeRequest_Overwrite_Value_TA_Switchvalue
                0x000000000004136a                bus_Configuration_1_sigVehicleModeRequest_Overwrite_Value_IO_Signal
                0x000000000004136b                bus_Configuration_1_sigVehicleModeRequest_Overwrite_Value_MDL_Signal
                0x000000000004136c                bus_Configuration_1_sigVehicleModeRequest_Feature_Switch_TA_Replacevalue
                0x0000000000041370                bus_Configuration_1_sigVehicleModeRequest_Feature_Switch_TA_Switchvalue
                0x0000000000041374                bus_Configuration_1_sigVehicleModeRequest_Feature_Switch_IO_Signal
                0x0000000000041378                bus_Configuration_1_sigVehicleModeRequest_Feature_Switch_MDL_Signal
                0x000000000004137c                bus_Configuration_1_sigVehicleModeRequest_Countdown_Start_Value_TA_Replacevalue
                0x0000000000041380                bus_Configuration_1_sigVehicleModeRequest_Countdown_Start_Value_TA_Switchvalue
                0x0000000000041384                bus_Configuration_1_sigVehicleModeRequest_Countdown_Start_Value_IO_Signal
                0x0000000000041388                bus_Configuration_1_sigVehicleModeRequest_Countdown_Start_Value_MDL_Signal
                0x000000000004138c                bus_Configuration_1_CCU_heartBeat_Overwrite_Value_TA_Replacevalue
                0x000000000004138d                bus_Configuration_1_CCU_heartBeat_Overwrite_Value_TA_Switchvalue
                0x000000000004138e                bus_Configuration_1_CCU_heartBeat_Overwrite_Value_IO_Signal
                0x000000000004138f                bus_Configuration_1_CCU_heartBeat_Overwrite_Value_MDL_Signal
                0x0000000000041390                bus_Configuration_1_CCU_heartBeat_Feature_Switch_TA_Replacevalue
                0x0000000000041394                bus_Configuration_1_CCU_heartBeat_Feature_Switch_TA_Switchvalue
                0x0000000000041398                bus_Configuration_1_CCU_heartBeat_Feature_Switch_IO_Signal
                0x000000000004139c                bus_Configuration_1_CCU_heartBeat_Feature_Switch_MDL_Signal
                0x00000000000413a0                bus_Configuration_1_CCU_heartBeat_Countdown_Start_Value_TA_Replacevalue
                0x00000000000413a4                bus_Configuration_1_CCU_heartBeat_Countdown_Start_Value_TA_Switchvalue
                0x00000000000413a8                bus_Configuration_1_CCU_heartBeat_Countdown_Start_Value_IO_Signal
                0x00000000000413ac                bus_Configuration_1_CCU_heartBeat_Countdown_Start_Value_MDL_Signal
                0x00000000000413b0                bus_Configuration_1_steeringPower_Overwrite_Value_TA_Replacevalue
                0x00000000000413b1                bus_Configuration_1_steeringPower_Overwrite_Value_TA_Switchvalue
                0x00000000000413b2                bus_Configuration_1_steeringPower_Overwrite_Value_IO_Signal
                0x00000000000413b3                bus_Configuration_1_steeringPower_Overwrite_Value_MDL_Signal
                0x00000000000413b4                bus_Configuration_1_steeringPower_Feature_Switch_TA_Replacevalue
                0x00000000000413b8                bus_Configuration_1_steeringPower_Feature_Switch_TA_Switchvalue
                0x00000000000413bc                bus_Configuration_1_steeringPower_Feature_Switch_IO_Signal
                0x00000000000413c0                bus_Configuration_1_steeringPower_Feature_Switch_MDL_Signal
                0x00000000000413c4                bus_Configuration_1_steeringPower_Countdown_Start_Value_TA_Replacevalue
                0x00000000000413c8                bus_Configuration_1_steeringPower_Countdown_Start_Value_TA_Switchvalue
                0x00000000000413cc                bus_Configuration_1_steeringPower_Countdown_Start_Value_IO_Signal
                0x00000000000413d0                bus_Configuration_1_steeringPower_Countdown_Start_Value_MDL_Signal
                0x00000000000413d4                bus_Configuration_1_notUsed_Overwrite_Value_TA_Replacevalue
                0x00000000000413d5                bus_Configuration_1_notUsed_Overwrite_Value_TA_Switchvalue
                0x00000000000413d6                bus_Configuration_1_notUsed_Overwrite_Value_IO_Signal
                0x00000000000413d7                bus_Configuration_1_notUsed_Overwrite_Value_MDL_Signal
                0x00000000000413d8                bus_Configuration_1_notUsed_Feature_Switch_TA_Replacevalue
                0x00000000000413dc                bus_Configuration_1_notUsed_Feature_Switch_TA_Switchvalue
                0x00000000000413e0                bus_Configuration_1_notUsed_Feature_Switch_IO_Signal
                0x00000000000413e4                bus_Configuration_1_notUsed_Feature_Switch_MDL_Signal
                0x00000000000413e8                bus_Configuration_1_notUsed_Countdown_Start_Value_TA_Replacevalue
                0x00000000000413ec                bus_Configuration_1_notUsed_Countdown_Start_Value_TA_Switchvalue
                0x00000000000413f0                bus_Configuration_1_notUsed_Countdown_Start_Value_IO_Signal
                0x00000000000413f4                bus_Configuration_1_notUsed_Countdown_Start_Value_MDL_Signal
                0x00000000000413f8                bus_Configuration_1_setDirection_Overwrite_Value_TA_Replacevalue
                0x00000000000413f9                bus_Configuration_1_setDirection_Overwrite_Value_TA_Switchvalue
                0x00000000000413fa                bus_Configuration_1_setDirection_Overwrite_Value_IO_Signal
                0x00000000000413fb                bus_Configuration_1_setDirection_Overwrite_Value_MDL_Signal
                0x00000000000413fc                bus_Configuration_1_setDirection_Feature_Switch_TA_Replacevalue
                0x0000000000041400                bus_Configuration_1_setDirection_Feature_Switch_TA_Switchvalue
                0x0000000000041404                bus_Configuration_1_setDirection_Feature_Switch_IO_Signal
                0x0000000000041408                bus_Configuration_1_setDirection_Feature_Switch_MDL_Signal
                0x000000000004140c                bus_Configuration_1_setDirection_Countdown_Start_Value_TA_Replacevalue
                0x0000000000041410                bus_Configuration_1_setDirection_Countdown_Start_Value_TA_Switchvalue
                0x0000000000041414                bus_Configuration_1_setDirection_Countdown_Start_Value_IO_Signal
                0x0000000000041418                bus_Configuration_1_setDirection_Countdown_Start_Value_MDL_Signal
                0x000000000004141c                bus_Configuration_1_setAutoParkBreak_Overwrite_Value_TA_Replacevalue
                0x000000000004141d                bus_Configuration_1_setAutoParkBreak_Overwrite_Value_TA_Switchvalue
                0x000000000004141e                bus_Configuration_1_setAutoParkBreak_Overwrite_Value_IO_Signal
                0x000000000004141f                bus_Configuration_1_setAutoParkBreak_Overwrite_Value_MDL_Signal
                0x0000000000041420                bus_Configuration_1_setAutoParkBreak_Feature_Switch_TA_Replacevalue
                0x0000000000041424                bus_Configuration_1_setAutoParkBreak_Feature_Switch_TA_Switchvalue
                0x0000000000041428                bus_Configuration_1_setAutoParkBreak_Feature_Switch_IO_Signal
                0x000000000004142c                bus_Configuration_1_setAutoParkBreak_Feature_Switch_MDL_Signal
                0x0000000000041430                bus_Configuration_1_setAutoParkBreak_Countdown_Start_Value_TA_Replacevalue
                0x0000000000041434                bus_Configuration_1_setAutoParkBreak_Countdown_Start_Value_TA_Switchvalue
                0x0000000000041438                bus_Configuration_1_setAutoParkBreak_Countdown_Start_Value_IO_Signal
                0x000000000004143c                bus_Configuration_1_setAutoParkBreak_Countdown_Start_Value_MDL_Signal
                0x0000000000041440                bus_Configuration_1_setBreake_Overwrite_Value_TA_Replacevalue
                0x0000000000041441                bus_Configuration_1_setBreake_Overwrite_Value_TA_Switchvalue
                0x0000000000041442                bus_Configuration_1_setBreake_Overwrite_Value_IO_Signal
                0x0000000000041443                bus_Configuration_1_setBreake_Overwrite_Value_MDL_Signal
                0x0000000000041444                bus_Configuration_1_setBreake_Feature_Switch_TA_Replacevalue
                0x0000000000041448                bus_Configuration_1_setBreake_Feature_Switch_TA_Switchvalue
                0x000000000004144c                bus_Configuration_1_setBreake_Feature_Switch_IO_Signal
                0x0000000000041450                bus_Configuration_1_setBreake_Feature_Switch_MDL_Signal
                0x0000000000041454                bus_Configuration_1_setBreake_Countdown_Start_Value_TA_Replacevalue
                0x0000000000041458                bus_Configuration_1_setBreake_Countdown_Start_Value_TA_Switchvalue
                0x000000000004145c                bus_Configuration_1_setBreake_Countdown_Start_Value_IO_Signal
                0x0000000000041460                bus_Configuration_1_setBreake_Countdown_Start_Value_MDL_Signal
                0x0000000000041464                bus_Configuration_1_setVelocity_Overwrite_Value_TA_Replacevalue
                0x0000000000041465                bus_Configuration_1_setVelocity_Overwrite_Value_TA_Switchvalue
                0x0000000000041466                bus_Configuration_1_setVelocity_Overwrite_Value_IO_Signal
                0x0000000000041467                bus_Configuration_1_setVelocity_Overwrite_Value_MDL_Signal
                0x0000000000041468                bus_Configuration_1_setVelocity_Feature_Switch_TA_Replacevalue
                0x000000000004146c                bus_Configuration_1_setVelocity_Feature_Switch_TA_Switchvalue
                0x0000000000041470                bus_Configuration_1_setVelocity_Feature_Switch_IO_Signal
                0x0000000000041474                bus_Configuration_1_setVelocity_Feature_Switch_MDL_Signal
                0x0000000000041478                bus_Configuration_1_setVelocity_Countdown_Start_Value_TA_Replacevalue
                0x000000000004147c                bus_Configuration_1_setVelocity_Countdown_Start_Value_TA_Switchvalue
                0x0000000000041480                bus_Configuration_1_setVelocity_Countdown_Start_Value_IO_Signal
                0x0000000000041484                bus_Configuration_1_setVelocity_Countdown_Start_Value_MDL_Signal
                0x0000000000041488                bus_Configuration_1_setDriveMode_Overwrite_Value_TA_Replacevalue
                0x0000000000041489                bus_Configuration_1_setDriveMode_Overwrite_Value_TA_Switchvalue
                0x000000000004148a                bus_Configuration_1_setDriveMode_Overwrite_Value_IO_Signal
                0x000000000004148b                bus_Configuration_1_setDriveMode_Overwrite_Value_MDL_Signal
                0x000000000004148c                bus_Configuration_1_setDriveMode_Feature_Switch_TA_Replacevalue
                0x0000000000041490                bus_Configuration_1_setDriveMode_Feature_Switch_TA_Switchvalue
                0x0000000000041494                bus_Configuration_1_setDriveMode_Feature_Switch_IO_Signal
                0x0000000000041498                bus_Configuration_1_setDriveMode_Feature_Switch_MDL_Signal
                0x000000000004149c                bus_Configuration_1_setDriveMode_Countdown_Start_Value_TA_Replacevalue
                0x00000000000414a0                bus_Configuration_1_setDriveMode_Countdown_Start_Value_TA_Switchvalue
                0x00000000000414a4                bus_Configuration_1_setDriveMode_Countdown_Start_Value_IO_Signal
                0x00000000000414a8                bus_Configuration_1_setDriveMode_Countdown_Start_Value_MDL_Signal
                0x00000000000414ac                bus_Configuration_1_sigStateOfCharge_Overwrite_Value_TA_Replacevalue
                0x00000000000414ad                bus_Configuration_1_sigStateOfCharge_Overwrite_Value_TA_Switchvalue
                0x00000000000414ae                bus_Configuration_1_sigStateOfCharge_Overwrite_Value_IO_Signal
                0x00000000000414af                bus_Configuration_1_sigStateOfCharge_Overwrite_Value_MDL_Signal
                0x00000000000414b0                bus_Configuration_1_sigStateOfCharge_Feature_Switch_TA_Replacevalue
                0x00000000000414b4                bus_Configuration_1_sigStateOfCharge_Feature_Switch_TA_Switchvalue
                0x00000000000414b8                bus_Configuration_1_sigStateOfCharge_Feature_Switch_IO_Signal
                0x00000000000414bc                bus_Configuration_1_sigStateOfCharge_Feature_Switch_MDL_Signal
                0x00000000000414c0                bus_Configuration_1_sigStateOfCharge_Countdown_Start_Value_TA_Replacevalue
                0x00000000000414c4                bus_Configuration_1_sigStateOfCharge_Countdown_Start_Value_TA_Switchvalue
                0x00000000000414c8                bus_Configuration_1_sigStateOfCharge_Countdown_Start_Value_IO_Signal
                0x00000000000414cc                bus_Configuration_1_sigStateOfCharge_Countdown_Start_Value_MDL_Signal
                0x00000000000414d0                bus_Configuration_1_sigKeyOnIndicator_Overwrite_Value_TA_Replacevalue
                0x00000000000414d1                bus_Configuration_1_sigKeyOnIndicator_Overwrite_Value_TA_Switchvalue
                0x00000000000414d2                bus_Configuration_1_sigKeyOnIndicator_Overwrite_Value_IO_Signal
                0x00000000000414d3                bus_Configuration_1_sigKeyOnIndicator_Overwrite_Value_MDL_Signal
                0x00000000000414d4                bus_Configuration_1_sigKeyOnIndicator_Feature_Switch_TA_Replacevalue
                0x00000000000414d8                bus_Configuration_1_sigKeyOnIndicator_Feature_Switch_TA_Switchvalue
                0x00000000000414dc                bus_Configuration_1_sigKeyOnIndicator_Feature_Switch_IO_Signal
                0x00000000000414e0                bus_Configuration_1_sigKeyOnIndicator_Feature_Switch_MDL_Signal
                0x00000000000414e4                bus_Configuration_1_sigKeyOnIndicator_Countdown_Start_Value_TA_Replacevalue
                0x00000000000414e8                bus_Configuration_1_sigKeyOnIndicator_Countdown_Start_Value_TA_Switchvalue
                0x00000000000414ec                bus_Configuration_1_sigKeyOnIndicator_Countdown_Start_Value_IO_Signal
                0x00000000000414f0                bus_Configuration_1_sigKeyOnIndicator_Countdown_Start_Value_MDL_Signal
                0x00000000000414f4                bus_Configuration_1_sigBatteryMalfunctionLight_Overwrite_Value_TA_Replacevalue
                0x00000000000414f5                bus_Configuration_1_sigBatteryMalfunctionLight_Overwrite_Value_TA_Switchvalue
                0x00000000000414f6                bus_Configuration_1_sigBatteryMalfunctionLight_Overwrite_Value_IO_Signal
                0x00000000000414f7                bus_Configuration_1_sigBatteryMalfunctionLight_Overwrite_Value_MDL_Signal
                0x00000000000414f8                bus_Configuration_1_sigBatteryMalfunctionLight_Feature_Switch_TA_Replacevalue
                0x00000000000414fc                bus_Configuration_1_sigBatteryMalfunctionLight_Feature_Switch_TA_Switchvalue
                0x0000000000041500                bus_Configuration_1_sigBatteryMalfunctionLight_Feature_Switch_IO_Signal
                0x0000000000041504                bus_Configuration_1_sigBatteryMalfunctionLight_Feature_Switch_MDL_Signal
                0x0000000000041508                bus_Configuration_1_sigBatteryMalfunctionLight_Countdown_Start_Value_TA_Replacevalue
                0x000000000004150c                bus_Configuration_1_sigBatteryMalfunctionLight_Countdown_Start_Value_TA_Switchvalue
                0x0000000000041510                bus_Configuration_1_sigBatteryMalfunctionLight_Countdown_Start_Value_IO_Signal
                0x0000000000041514                bus_Configuration_1_sigBatteryMalfunctionLight_Countdown_Start_Value_MDL_Signal
                0x0000000000041518                bus_Configuration_1_sigControllerTemperature_Overwrite_Value_TA_Replacevalue
                0x0000000000041519                bus_Configuration_1_sigControllerTemperature_Overwrite_Value_TA_Switchvalue
                0x000000000004151a                bus_Configuration_1_sigControllerTemperature_Overwrite_Value_IO_Signal
                0x000000000004151b                bus_Configuration_1_sigControllerTemperature_Overwrite_Value_MDL_Signal
                0x000000000004151c                bus_Configuration_1_sigControllerTemperature_Feature_Switch_TA_Replacevalue
                0x0000000000041520                bus_Configuration_1_sigControllerTemperature_Feature_Switch_TA_Switchvalue
                0x0000000000041524                bus_Configuration_1_sigControllerTemperature_Feature_Switch_IO_Signal
                0x0000000000041528                bus_Configuration_1_sigControllerTemperature_Feature_Switch_MDL_Signal
                0x000000000004152c                bus_Configuration_1_sigControllerTemperature_Countdown_Start_Value_TA_Replacevalue
                0x0000000000041530                bus_Configuration_1_sigControllerTemperature_Countdown_Start_Value_TA_Switchvalue
                0x0000000000041534                bus_Configuration_1_sigControllerTemperature_Countdown_Start_Value_IO_Signal
                0x0000000000041538                bus_Configuration_1_sigControllerTemperature_Countdown_Start_Value_MDL_Signal
                0x000000000004153c                bus_Configuration_1_sigMotorTemperature_Overwrite_Value_TA_Replacevalue
                0x000000000004153e                bus_Configuration_1_sigMotorTemperature_Overwrite_Value_TA_Switchvalue
                0x0000000000041540                bus_Configuration_1_sigMotorTemperature_Overwrite_Value_IO_Signal
                0x0000000000041542                bus_Configuration_1_sigMotorTemperature_Overwrite_Value_MDL_Signal
                0x0000000000041544                bus_Configuration_1_sigMotorTemperature_Feature_Switch_TA_Replacevalue
                0x0000000000041548                bus_Configuration_1_sigMotorTemperature_Feature_Switch_TA_Switchvalue
                0x000000000004154c                bus_Configuration_1_sigMotorTemperature_Feature_Switch_IO_Signal
                0x0000000000041550                bus_Configuration_1_sigMotorTemperature_Feature_Switch_MDL_Signal
                0x0000000000041554                bus_Configuration_1_sigMotorTemperature_Countdown_Start_Value_TA_Replacevalue
                0x0000000000041558                bus_Configuration_1_sigMotorTemperature_Countdown_Start_Value_TA_Switchvalue
                0x000000000004155c                bus_Configuration_1_sigMotorTemperature_Countdown_Start_Value_IO_Signal
                0x0000000000041560                bus_Configuration_1_sigMotorTemperature_Countdown_Start_Value_MDL_Signal
                0x0000000000041568                bus_Configuration_1_sigRMSCurrent_Overwrite_Value_TA_Replacevalue
                0x0000000000041570                bus_Configuration_1_sigRMSCurrent_Overwrite_Value_TA_Switchvalue
                0x0000000000041578                bus_Configuration_1_sigRMSCurrent_Overwrite_Value_IO_Signal
                0x0000000000041580                bus_Configuration_1_sigRMSCurrent_Overwrite_Value_MDL_Signal
                0x0000000000041588                BM_value_16343
                0x0000000000041590                bus_Configuration_1_sigRMSCurrent_Feature_Switch_TA_Replacevalue
                0x0000000000041594                bus_Configuration_1_sigRMSCurrent_Feature_Switch_TA_Switchvalue
                0x0000000000041598                bus_Configuration_1_sigRMSCurrent_Feature_Switch_IO_Signal
                0x000000000004159c                bus_Configuration_1_sigRMSCurrent_Feature_Switch_MDL_Signal
                0x00000000000415a0                bus_Configuration_1_sigRMSCurrent_Countdown_Start_Value_TA_Replacevalue
                0x00000000000415a4                bus_Configuration_1_sigRMSCurrent_Countdown_Start_Value_TA_Switchvalue
                0x00000000000415a8                bus_Configuration_1_sigRMSCurrent_Countdown_Start_Value_IO_Signal
                0x00000000000415ac                bus_Configuration_1_sigRMSCurrent_Countdown_Start_Value_MDL_Signal
                0x00000000000415b0                bus_Configuration_1_sigThrottle_Overwrite_Value_TA_Replacevalue
                0x00000000000415b1                bus_Configuration_1_sigThrottle_Overwrite_Value_TA_Switchvalue
                0x00000000000415b2                bus_Configuration_1_sigThrottle_Overwrite_Value_IO_Signal
                0x00000000000415b3                bus_Configuration_1_sigThrottle_Overwrite_Value_MDL_Signal
                0x00000000000415b4                bus_Configuration_1_sigThrottle_Feature_Switch_TA_Replacevalue
                0x00000000000415b8                bus_Configuration_1_sigThrottle_Feature_Switch_TA_Switchvalue
                0x00000000000415bc                bus_Configuration_1_sigThrottle_Feature_Switch_IO_Signal
                0x00000000000415c0                bus_Configuration_1_sigThrottle_Feature_Switch_MDL_Signal
                0x00000000000415c4                bus_Configuration_1_sigThrottle_Countdown_Start_Value_TA_Replacevalue
                0x00000000000415c8                bus_Configuration_1_sigThrottle_Countdown_Start_Value_TA_Switchvalue
                0x00000000000415cc                bus_Configuration_1_sigThrottle_Countdown_Start_Value_IO_Signal
                0x00000000000415d0                bus_Configuration_1_sigThrottle_Countdown_Start_Value_MDL_Signal
                0x00000000000415d4                bus_Configuration_1_sigSpeed_Overwrite_Value_TA_Replacevalue
                0x00000000000415d5                bus_Configuration_1_sigSpeed_Overwrite_Value_TA_Switchvalue
                0x00000000000415d6                bus_Configuration_1_sigSpeed_Overwrite_Value_IO_Signal
                0x00000000000415d7                bus_Configuration_1_sigSpeed_Overwrite_Value_MDL_Signal
                0x00000000000415d8                bus_Configuration_1_sigSpeed_Feature_Switch_TA_Replacevalue
                0x00000000000415dc                bus_Configuration_1_sigSpeed_Feature_Switch_TA_Switchvalue
                0x00000000000415e0                bus_Configuration_1_sigSpeed_Feature_Switch_IO_Signal
                0x00000000000415e4                bus_Configuration_1_sigSpeed_Feature_Switch_MDL_Signal
                0x00000000000415e8                bus_Configuration_1_sigSpeed_Countdown_Start_Value_TA_Replacevalue
                0x00000000000415ec                bus_Configuration_1_sigSpeed_Countdown_Start_Value_TA_Switchvalue
                0x00000000000415f0                bus_Configuration_1_sigSpeed_Countdown_Start_Value_IO_Signal
                0x00000000000415f4                bus_Configuration_1_sigSpeed_Countdown_Start_Value_MDL_Signal
                0x00000000000415f8                bus_Configuration_1_sigDriveMode_Overwrite_Value_TA_Replacevalue
                0x00000000000415f9                bus_Configuration_1_sigDriveMode_Overwrite_Value_TA_Switchvalue
                0x00000000000415fa                bus_Configuration_1_sigDriveMode_Overwrite_Value_IO_Signal
                0x00000000000415fb                bus_Configuration_1_sigDriveMode_Overwrite_Value_MDL_Signal
                0x00000000000415fc                bus_Configuration_1_sigDriveMode_Feature_Switch_TA_Replacevalue
                0x0000000000041600                bus_Configuration_1_sigDriveMode_Feature_Switch_TA_Switchvalue
                0x0000000000041604                bus_Configuration_1_sigDriveMode_Feature_Switch_IO_Signal
                0x0000000000041608                bus_Configuration_1_sigDriveMode_Feature_Switch_MDL_Signal
                0x000000000004160c                bus_Configuration_1_sigDriveMode_Countdown_Start_Value_TA_Replacevalue
                0x0000000000041610                bus_Configuration_1_sigDriveMode_Countdown_Start_Value_TA_Switchvalue
                0x0000000000041614                bus_Configuration_1_sigDriveMode_Countdown_Start_Value_IO_Signal
                0x0000000000041618                bus_Configuration_1_sigDriveMode_Countdown_Start_Value_MDL_Signal
                0x000000000004161c                bus_Configuration_1_sigBrake_Overwrite_Value_TA_Replacevalue
                0x000000000004161d                bus_Configuration_1_sigBrake_Overwrite_Value_TA_Switchvalue
                0x000000000004161e                bus_Configuration_1_sigBrake_Overwrite_Value_IO_Signal
                0x000000000004161f                bus_Configuration_1_sigBrake_Overwrite_Value_MDL_Signal
                0x0000000000041620                bus_Configuration_1_sigBrake_Feature_Switch_TA_Replacevalue
                0x0000000000041624                bus_Configuration_1_sigBrake_Feature_Switch_TA_Switchvalue
                0x0000000000041628                bus_Configuration_1_sigBrake_Feature_Switch_IO_Signal
                0x000000000004162c                bus_Configuration_1_sigBrake_Feature_Switch_MDL_Signal
                0x0000000000041630                bus_Configuration_1_sigBrake_Countdown_Start_Value_TA_Replacevalue
                0x0000000000041634                bus_Configuration_1_sigBrake_Countdown_Start_Value_TA_Switchvalue
                0x0000000000041638                bus_Configuration_1_sigBrake_Countdown_Start_Value_IO_Signal
                0x000000000004163c                bus_Configuration_1_sigBrake_Countdown_Start_Value_MDL_Signal
                0x0000000000041640                bus_Configuration_1_sigMotorRPM_Overwrite_Value_TA_Replacevalue
                0x0000000000041642                bus_Configuration_1_sigMotorRPM_Overwrite_Value_TA_Switchvalue
                0x0000000000041644                bus_Configuration_1_sigMotorRPM_Overwrite_Value_IO_Signal
                0x0000000000041646                bus_Configuration_1_sigMotorRPM_Overwrite_Value_MDL_Signal
                0x0000000000041648                bus_Configuration_1_sigMotorRPM_Feature_Switch_TA_Replacevalue
                0x000000000004164c                bus_Configuration_1_sigMotorRPM_Feature_Switch_TA_Switchvalue
                0x0000000000041650                bus_Configuration_1_sigMotorRPM_Feature_Switch_IO_Signal
                0x0000000000041654                bus_Configuration_1_sigMotorRPM_Feature_Switch_MDL_Signal
                0x0000000000041658                bus_Configuration_1_sigMotorRPM_Countdown_Start_Value_TA_Replacevalue
                0x000000000004165c                bus_Configuration_1_sigMotorRPM_Countdown_Start_Value_TA_Switchvalue
                0x0000000000041660                bus_Configuration_1_sigMotorRPM_Countdown_Start_Value_IO_Signal
                0x0000000000041664                bus_Configuration_1_sigMotorRPM_Countdown_Start_Value_MDL_Signal
                0x0000000000041668                bus_Configuration_1_sigCapacitorVoltage_Overwrite_Value_TA_Replacevalue
                0x0000000000041670                bus_Configuration_1_sigCapacitorVoltage_Overwrite_Value_TA_Switchvalue
                0x0000000000041678                bus_Configuration_1_sigCapacitorVoltage_Overwrite_Value_IO_Signal
                0x0000000000041680                bus_Configuration_1_sigCapacitorVoltage_Overwrite_Value_MDL_Signal
                0x0000000000041688                BM_value_16342
                0x0000000000041690                bus_Configuration_1_sigCapacitorVoltage_Feature_Switch_TA_Replacevalue
                0x0000000000041694                bus_Configuration_1_sigCapacitorVoltage_Feature_Switch_TA_Switchvalue
                0x0000000000041698                bus_Configuration_1_sigCapacitorVoltage_Feature_Switch_IO_Signal
                0x000000000004169c                bus_Configuration_1_sigCapacitorVoltage_Feature_Switch_MDL_Signal
                0x00000000000416a0                bus_Configuration_1_sigCapacitorVoltage_Countdown_Start_Value_TA_Replacevalue
                0x00000000000416a4                bus_Configuration_1_sigCapacitorVoltage_Countdown_Start_Value_TA_Switchvalue
                0x00000000000416a8                bus_Configuration_1_sigCapacitorVoltage_Countdown_Start_Value_IO_Signal
                0x00000000000416ac                bus_Configuration_1_sigCapacitorVoltage_Countdown_Start_Value_MDL_Signal
                0x00000000000416b0                bus_Configuration_1_sigOdometer_Overwrite_Value_TA_Replacevalue
                0x00000000000416b8                bus_Configuration_1_sigOdometer_Overwrite_Value_TA_Switchvalue
                0x00000000000416c0                bus_Configuration_1_sigOdometer_Overwrite_Value_IO_Signal
                0x00000000000416c8                bus_Configuration_1_sigOdometer_Overwrite_Value_MDL_Signal
                0x00000000000416d0                BM_value_16341
                0x00000000000416d8                bus_Configuration_1_sigOdometer_Feature_Switch_TA_Replacevalue
                0x00000000000416dc                bus_Configuration_1_sigOdometer_Feature_Switch_TA_Switchvalue
                0x00000000000416e0                bus_Configuration_1_sigOdometer_Feature_Switch_IO_Signal
                0x00000000000416e4                bus_Configuration_1_sigOdometer_Feature_Switch_MDL_Signal
                0x00000000000416e8                bus_Configuration_1_sigOdometer_Countdown_Start_Value_TA_Replacevalue
                0x00000000000416ec                bus_Configuration_1_sigOdometer_Countdown_Start_Value_TA_Switchvalue
                0x00000000000416f0                bus_Configuration_1_sigOdometer_Countdown_Start_Value_IO_Signal
                0x00000000000416f4                bus_Configuration_1_sigOdometer_Countdown_Start_Value_MDL_Signal
                0x00000000000416f8                bus_Configuration_1_sigControllerCommonFault_Overwrite_Value_TA_Replacevalue
                0x00000000000416f9                bus_Configuration_1_sigControllerCommonFault_Overwrite_Value_TA_Switchvalue
                0x00000000000416fa                bus_Configuration_1_sigControllerCommonFault_Overwrite_Value_IO_Signal
                0x00000000000416fb                bus_Configuration_1_sigControllerCommonFault_Overwrite_Value_MDL_Signal
                0x00000000000416fc                bus_Configuration_1_sigControllerCommonFault_Feature_Switch_TA_Replacevalue
                0x0000000000041700                bus_Configuration_1_sigControllerCommonFault_Feature_Switch_TA_Switchvalue
                0x0000000000041704                bus_Configuration_1_sigControllerCommonFault_Feature_Switch_IO_Signal
                0x0000000000041708                bus_Configuration_1_sigControllerCommonFault_Feature_Switch_MDL_Signal
                0x000000000004170c                bus_Configuration_1_sigControllerCommonFault_Countdown_Start_Value_TA_Replacevalue
                0x0000000000041710                bus_Configuration_1_sigControllerCommonFault_Countdown_Start_Value_TA_Switchvalue
                0x0000000000041714                bus_Configuration_1_sigControllerCommonFault_Countdown_Start_Value_IO_Signal
                0x0000000000041718                bus_Configuration_1_sigControllerCommonFault_Countdown_Start_Value_MDL_Signal
                0x000000000004171c                bus_Configuration_1_sigControllerOverCurrent_Overwrite_Value_TA_Replacevalue
                0x000000000004171d                bus_Configuration_1_sigControllerOverCurrent_Overwrite_Value_TA_Switchvalue
                0x000000000004171e                bus_Configuration_1_sigControllerOverCurrent_Overwrite_Value_IO_Signal
                0x000000000004171f                bus_Configuration_1_sigControllerOverCurrent_Overwrite_Value_MDL_Signal
                0x0000000000041720                bus_Configuration_1_sigControllerOverCurrent_Feature_Switch_TA_Replacevalue
                0x0000000000041724                bus_Configuration_1_sigControllerOverCurrent_Feature_Switch_TA_Switchvalue
                0x0000000000041728                bus_Configuration_1_sigControllerOverCurrent_Feature_Switch_IO_Signal
                0x000000000004172c                bus_Configuration_1_sigControllerOverCurrent_Feature_Switch_MDL_Signal
                0x0000000000041730                bus_Configuration_1_sigControllerOverCurrent_Countdown_Start_Value_TA_Replacevalue
                0x0000000000041734                bus_Configuration_1_sigControllerOverCurrent_Countdown_Start_Value_TA_Switchvalue
                0x0000000000041738                bus_Configuration_1_sigControllerOverCurrent_Countdown_Start_Value_IO_Signal
                0x000000000004173c                bus_Configuration_1_sigControllerOverCurrent_Countdown_Start_Value_MDL_Signal
                0x0000000000041740                bus_Configuration_1_sigCurrentSensorFault_Overwrite_Value_TA_Replacevalue
                0x0000000000041741                bus_Configuration_1_sigCurrentSensorFault_Overwrite_Value_TA_Switchvalue
                0x0000000000041742                bus_Configuration_1_sigCurrentSensorFault_Overwrite_Value_IO_Signal
                0x0000000000041743                bus_Configuration_1_sigCurrentSensorFault_Overwrite_Value_MDL_Signal
                0x0000000000041744                bus_Configuration_1_sigCurrentSensorFault_Feature_Switch_TA_Replacevalue
                0x0000000000041748                bus_Configuration_1_sigCurrentSensorFault_Feature_Switch_TA_Switchvalue
                0x000000000004174c                bus_Configuration_1_sigCurrentSensorFault_Feature_Switch_IO_Signal
                0x0000000000041750                bus_Configuration_1_sigCurrentSensorFault_Feature_Switch_MDL_Signal
                0x0000000000041754                bus_Configuration_1_sigCurrentSensorFault_Countdown_Start_Value_TA_Replacevalue
                0x0000000000041758                bus_Configuration_1_sigCurrentSensorFault_Countdown_Start_Value_TA_Switchvalue
                0x000000000004175c                bus_Configuration_1_sigCurrentSensorFault_Countdown_Start_Value_IO_Signal
                0x0000000000041760                bus_Configuration_1_sigCurrentSensorFault_Countdown_Start_Value_MDL_Signal
                0x0000000000041764                bus_Configuration_1_sigPrechargeFailed_Overwrite_Value_TA_Replacevalue
                0x0000000000041765                bus_Configuration_1_sigPrechargeFailed_Overwrite_Value_TA_Switchvalue
                0x0000000000041766                bus_Configuration_1_sigPrechargeFailed_Overwrite_Value_IO_Signal
                0x0000000000041767                bus_Configuration_1_sigPrechargeFailed_Overwrite_Value_MDL_Signal
                0x0000000000041768                bus_Configuration_1_sigPrechargeFailed_Feature_Switch_TA_Replacevalue
                0x000000000004176c                bus_Configuration_1_sigPrechargeFailed_Feature_Switch_TA_Switchvalue
                0x0000000000041770                bus_Configuration_1_sigPrechargeFailed_Feature_Switch_IO_Signal
                0x0000000000041774                bus_Configuration_1_sigPrechargeFailed_Feature_Switch_MDL_Signal
                0x0000000000041778                bus_Configuration_1_sigPrechargeFailed_Countdown_Start_Value_TA_Replacevalue
                0x000000000004177c                bus_Configuration_1_sigPrechargeFailed_Countdown_Start_Value_TA_Switchvalue
                0x0000000000041780                bus_Configuration_1_sigPrechargeFailed_Countdown_Start_Value_IO_Signal
                0x0000000000041784                bus_Configuration_1_sigPrechargeFailed_Countdown_Start_Value_MDL_Signal
                0x0000000000041788                bus_Configuration_1_sigControllerSevereUndertemp_Overwrite_Value_TA_Replacevalue
                0x0000000000041789                bus_Configuration_1_sigControllerSevereUndertemp_Overwrite_Value_TA_Switchvalue
                0x000000000004178a                bus_Configuration_1_sigControllerSevereUndertemp_Overwrite_Value_IO_Signal
                0x000000000004178b                bus_Configuration_1_sigControllerSevereUndertemp_Overwrite_Value_MDL_Signal
                0x000000000004178c                bus_Configuration_1_sigControllerSevereUndertemp_Feature_Switch_TA_Replacevalue
                0x0000000000041790                bus_Configuration_1_sigControllerSevereUndertemp_Feature_Switch_TA_Switchvalue
                0x0000000000041794                bus_Configuration_1_sigControllerSevereUndertemp_Feature_Switch_IO_Signal
                0x0000000000041798                bus_Configuration_1_sigControllerSevereUndertemp_Feature_Switch_MDL_Signal
                0x000000000004179c                bus_Configuration_1_sigControllerSevereUndertemp_Countdown_Start_Value_TA_Replacevalue
                0x00000000000417a0                bus_Configuration_1_sigControllerSevereUndertemp_Countdown_Start_Value_TA_Switchvalue
                0x00000000000417a4                bus_Configuration_1_sigControllerSevereUndertemp_Countdown_Start_Value_IO_Signal
                0x00000000000417a8                bus_Configuration_1_sigControllerSevereUndertemp_Countdown_Start_Value_MDL_Signal
                0x00000000000417ac                bus_Configuration_1_sigControllerSevereOvertemp_Overwrite_Value_TA_Replacevalue
                0x00000000000417ad                bus_Configuration_1_sigControllerSevereOvertemp_Overwrite_Value_TA_Switchvalue
                0x00000000000417ae                bus_Configuration_1_sigControllerSevereOvertemp_Overwrite_Value_IO_Signal
                0x00000000000417af                bus_Configuration_1_sigControllerSevereOvertemp_Overwrite_Value_MDL_Signal
                0x00000000000417b0                bus_Configuration_1_sigControllerSevereOvertemp_Feature_Switch_TA_Replacevalue
                0x00000000000417b4                bus_Configuration_1_sigControllerSevereOvertemp_Feature_Switch_TA_Switchvalue
                0x00000000000417b8                bus_Configuration_1_sigControllerSevereOvertemp_Feature_Switch_IO_Signal
                0x00000000000417bc                bus_Configuration_1_sigControllerSevereOvertemp_Feature_Switch_MDL_Signal
                0x00000000000417c0                bus_Configuration_1_sigControllerSevereOvertemp_Countdown_Start_Value_TA_Replacevalue
                0x00000000000417c4                bus_Configuration_1_sigControllerSevereOvertemp_Countdown_Start_Value_TA_Switchvalue
                0x00000000000417c8                bus_Configuration_1_sigControllerSevereOvertemp_Countdown_Start_Value_IO_Signal
                0x00000000000417cc                bus_Configuration_1_sigControllerSevereOvertemp_Countdown_Start_Value_MDL_Signal
                0x00000000000417d0                bus_Configuration_1_sigSevereBPosUndervoltage_Overwrite_Value_TA_Replacevalue
                0x00000000000417d1                bus_Configuration_1_sigSevereBPosUndervoltage_Overwrite_Value_TA_Switchvalue
                0x00000000000417d2                bus_Configuration_1_sigSevereBPosUndervoltage_Overwrite_Value_IO_Signal
                0x00000000000417d3                bus_Configuration_1_sigSevereBPosUndervoltage_Overwrite_Value_MDL_Signal
                0x00000000000417d4                bus_Configuration_1_sigSevereBPosUndervoltage_Feature_Switch_TA_Replacevalue
                0x00000000000417d8                bus_Configuration_1_sigSevereBPosUndervoltage_Feature_Switch_TA_Switchvalue
                0x00000000000417dc                bus_Configuration_1_sigSevereBPosUndervoltage_Feature_Switch_IO_Signal
                0x00000000000417e0                bus_Configuration_1_sigSevereBPosUndervoltage_Feature_Switch_MDL_Signal
                0x00000000000417e4                bus_Configuration_1_sigSevereBPosUndervoltage_Countdown_Start_Value_TA_Replacevalue
                0x00000000000417e8                bus_Configuration_1_sigSevereBPosUndervoltage_Countdown_Start_Value_TA_Switchvalue
                0x00000000000417ec                bus_Configuration_1_sigSevereBPosUndervoltage_Countdown_Start_Value_IO_Signal
                0x00000000000417f0                bus_Configuration_1_sigSevereBPosUndervoltage_Countdown_Start_Value_MDL_Signal
                0x00000000000417f4                bus_Configuration_1_sigSevereKSIUndervoltage_Overwrite_Value_TA_Replacevalue
                0x00000000000417f5                bus_Configuration_1_sigSevereKSIUndervoltage_Overwrite_Value_TA_Switchvalue
                0x00000000000417f6                bus_Configuration_1_sigSevereKSIUndervoltage_Overwrite_Value_IO_Signal
                0x00000000000417f7                bus_Configuration_1_sigSevereKSIUndervoltage_Overwrite_Value_MDL_Signal
                0x00000000000417f8                bus_Configuration_1_sigSevereKSIUndervoltage_Feature_Switch_TA_Replacevalue
                0x00000000000417fc                bus_Configuration_1_sigSevereKSIUndervoltage_Feature_Switch_TA_Switchvalue
                0x0000000000041800                bus_Configuration_1_sigSevereKSIUndervoltage_Feature_Switch_IO_Signal
                0x0000000000041804                bus_Configuration_1_sigSevereKSIUndervoltage_Feature_Switch_MDL_Signal
                0x0000000000041808                bus_Configuration_1_sigSevereKSIUndervoltage_Countdown_Start_Value_TA_Replacevalue
                0x000000000004180c                bus_Configuration_1_sigSevereKSIUndervoltage_Countdown_Start_Value_TA_Switchvalue
                0x0000000000041810                bus_Configuration_1_sigSevereKSIUndervoltage_Countdown_Start_Value_IO_Signal
                0x0000000000041814                bus_Configuration_1_sigSevereKSIUndervoltage_Countdown_Start_Value_MDL_Signal
                0x0000000000041818                bus_Configuration_1_sigSevereBPosOvervoltage_Overwrite_Value_TA_Replacevalue
                0x0000000000041819                bus_Configuration_1_sigSevereBPosOvervoltage_Overwrite_Value_TA_Switchvalue
                0x000000000004181a                bus_Configuration_1_sigSevereBPosOvervoltage_Overwrite_Value_IO_Signal
                0x000000000004181b                bus_Configuration_1_sigSevereBPosOvervoltage_Overwrite_Value_MDL_Signal
                0x000000000004181c                bus_Configuration_1_sigSevereBPosOvervoltage_Feature_Switch_TA_Replacevalue
                0x0000000000041820                bus_Configuration_1_sigSevereBPosOvervoltage_Feature_Switch_TA_Switchvalue
                0x0000000000041824                bus_Configuration_1_sigSevereBPosOvervoltage_Feature_Switch_IO_Signal
                0x0000000000041828                bus_Configuration_1_sigSevereBPosOvervoltage_Feature_Switch_MDL_Signal
                0x000000000004182c                bus_Configuration_1_sigSevereBPosOvervoltage_Countdown_Start_Value_TA_Replacevalue
                0x0000000000041830                bus_Configuration_1_sigSevereBPosOvervoltage_Countdown_Start_Value_TA_Switchvalue
                0x0000000000041834                bus_Configuration_1_sigSevereBPosOvervoltage_Countdown_Start_Value_IO_Signal
                0x0000000000041838                bus_Configuration_1_sigSevereBPosOvervoltage_Countdown_Start_Value_MDL_Signal
                0x000000000004183c                bus_Configuration_1_sigSevereKSIOvervoltage_Overwrite_Value_TA_Replacevalue
                0x000000000004183d                bus_Configuration_1_sigSevereKSIOvervoltage_Overwrite_Value_TA_Switchvalue
                0x000000000004183e                bus_Configuration_1_sigSevereKSIOvervoltage_Overwrite_Value_IO_Signal
                0x000000000004183f                bus_Configuration_1_sigSevereKSIOvervoltage_Overwrite_Value_MDL_Signal
                0x0000000000041840                bus_Configuration_1_sigSevereKSIOvervoltage_Feature_Switch_TA_Replacevalue
                0x0000000000041844                bus_Configuration_1_sigSevereKSIOvervoltage_Feature_Switch_TA_Switchvalue
                0x0000000000041848                bus_Configuration_1_sigSevereKSIOvervoltage_Feature_Switch_IO_Signal
                0x000000000004184c                bus_Configuration_1_sigSevereKSIOvervoltage_Feature_Switch_MDL_Signal
                0x0000000000041850                bus_Configuration_1_sigSevereKSIOvervoltage_Countdown_Start_Value_TA_Replacevalue
                0x0000000000041854                bus_Configuration_1_sigSevereKSIOvervoltage_Countdown_Start_Value_TA_Switchvalue
                0x0000000000041858                bus_Configuration_1_sigSevereKSIOvervoltage_Countdown_Start_Value_IO_Signal
                0x000000000004185c                bus_Configuration_1_sigSevereKSIOvervoltage_Countdown_Start_Value_MDL_Signal
                0x0000000000041860                bus_Configuration_1_sigControllerOvertempCutback_Overwrite_Value_TA_Replacevalue
                0x0000000000041861                bus_Configuration_1_sigControllerOvertempCutback_Overwrite_Value_TA_Switchvalue
                0x0000000000041862                bus_Configuration_1_sigControllerOvertempCutback_Overwrite_Value_IO_Signal
                0x0000000000041863                bus_Configuration_1_sigControllerOvertempCutback_Overwrite_Value_MDL_Signal
                0x0000000000041864                bus_Configuration_1_sigControllerOvertempCutback_Feature_Switch_TA_Replacevalue
                0x0000000000041868                bus_Configuration_1_sigControllerOvertempCutback_Feature_Switch_TA_Switchvalue
                0x000000000004186c                bus_Configuration_1_sigControllerOvertempCutback_Feature_Switch_IO_Signal
                0x0000000000041870                bus_Configuration_1_sigControllerOvertempCutback_Feature_Switch_MDL_Signal
                0x0000000000041874                bus_Configuration_1_sigControllerOvertempCutback_Countdown_Start_Value_TA_Replacevalue
                0x0000000000041878                bus_Configuration_1_sigControllerOvertempCutback_Countdown_Start_Value_TA_Switchvalue
                0x000000000004187c                bus_Configuration_1_sigControllerOvertempCutback_Countdown_Start_Value_IO_Signal
                0x0000000000041880                bus_Configuration_1_sigControllerOvertempCutback_Countdown_Start_Value_MDL_Signal
                0x0000000000041884                bus_Configuration_1_sigBPosUndervoltageCutback_Overwrite_Value_TA_Replacevalue
                0x0000000000041885                bus_Configuration_1_sigBPosUndervoltageCutback_Overwrite_Value_TA_Switchvalue
                0x0000000000041886                bus_Configuration_1_sigBPosUndervoltageCutback_Overwrite_Value_IO_Signal
                0x0000000000041887                bus_Configuration_1_sigBPosUndervoltageCutback_Overwrite_Value_MDL_Signal
                0x0000000000041888                bus_Configuration_1_sigBPosUndervoltageCutback_Feature_Switch_TA_Replacevalue
                0x000000000004188c                bus_Configuration_1_sigBPosUndervoltageCutback_Feature_Switch_TA_Switchvalue
                0x0000000000041890                bus_Configuration_1_sigBPosUndervoltageCutback_Feature_Switch_IO_Signal
                0x0000000000041894                bus_Configuration_1_sigBPosUndervoltageCutback_Feature_Switch_MDL_Signal
                0x0000000000041898                bus_Configuration_1_sigBPosUndervoltageCutback_Countdown_Start_Value_TA_Replacevalue
                0x000000000004189c                bus_Configuration_1_sigBPosUndervoltageCutback_Countdown_Start_Value_TA_Switchvalue
                0x00000000000418a0                bus_Configuration_1_sigBPosUndervoltageCutback_Countdown_Start_Value_IO_Signal
                0x00000000000418a4                bus_Configuration_1_sigBPosUndervoltageCutback_Countdown_Start_Value_MDL_Signal
                0x00000000000418a8                bus_Configuration_1_sigBPosOvervoltageCutback_Overwrite_Value_TA_Replacevalue
                0x00000000000418a9                bus_Configuration_1_sigBPosOvervoltageCutback_Overwrite_Value_TA_Switchvalue
                0x00000000000418aa                bus_Configuration_1_sigBPosOvervoltageCutback_Overwrite_Value_IO_Signal
                0x00000000000418ab                bus_Configuration_1_sigBPosOvervoltageCutback_Overwrite_Value_MDL_Signal
                0x00000000000418ac                bus_Configuration_1_sigBPosOvervoltageCutback_Feature_Switch_TA_Replacevalue
                0x00000000000418b0                bus_Configuration_1_sigBPosOvervoltageCutback_Feature_Switch_TA_Switchvalue
                0x00000000000418b4                bus_Configuration_1_sigBPosOvervoltageCutback_Feature_Switch_IO_Signal
                0x00000000000418b8                bus_Configuration_1_sigBPosOvervoltageCutback_Feature_Switch_MDL_Signal
                0x00000000000418bc                bus_Configuration_1_sigBPosOvervoltageCutback_Countdown_Start_Value_TA_Replacevalue
                0x00000000000418c0                bus_Configuration_1_sigBPosOvervoltageCutback_Countdown_Start_Value_TA_Switchvalue
                0x00000000000418c4                bus_Configuration_1_sigBPosOvervoltageCutback_Countdown_Start_Value_IO_Signal
                0x00000000000418c8                bus_Configuration_1_sigBPosOvervoltageCutback_Countdown_Start_Value_MDL_Signal
                0x00000000000418cc                bus_Configuration_1_sig5VSupplyFailure_Overwrite_Value_TA_Replacevalue
                0x00000000000418cd                bus_Configuration_1_sig5VSupplyFailure_Overwrite_Value_TA_Switchvalue
                0x00000000000418ce                bus_Configuration_1_sig5VSupplyFailure_Overwrite_Value_IO_Signal
                0x00000000000418cf                bus_Configuration_1_sig5VSupplyFailure_Overwrite_Value_MDL_Signal
                0x00000000000418d0                bus_Configuration_1_sig5VSupplyFailure_Feature_Switch_TA_Replacevalue
                0x00000000000418d4                bus_Configuration_1_sig5VSupplyFailure_Feature_Switch_TA_Switchvalue
                0x00000000000418d8                bus_Configuration_1_sig5VSupplyFailure_Feature_Switch_IO_Signal
                0x00000000000418dc                bus_Configuration_1_sig5VSupplyFailure_Feature_Switch_MDL_Signal
                0x00000000000418e0                bus_Configuration_1_sig5VSupplyFailure_Countdown_Start_Value_TA_Replacevalue
                0x00000000000418e4                bus_Configuration_1_sig5VSupplyFailure_Countdown_Start_Value_TA_Switchvalue
                0x00000000000418e8                bus_Configuration_1_sig5VSupplyFailure_Countdown_Start_Value_IO_Signal
                0x00000000000418ec                bus_Configuration_1_sig5VSupplyFailure_Countdown_Start_Value_MDL_Signal
                0x00000000000418f0                bus_Configuration_1_sigMotorTempHotCutback_Overwrite_Value_TA_Replacevalue
                0x00000000000418f1                bus_Configuration_1_sigMotorTempHotCutback_Overwrite_Value_TA_Switchvalue
                0x00000000000418f2                bus_Configuration_1_sigMotorTempHotCutback_Overwrite_Value_IO_Signal
                0x00000000000418f3                bus_Configuration_1_sigMotorTempHotCutback_Overwrite_Value_MDL_Signal
                0x00000000000418f4                bus_Configuration_1_sigMotorTempHotCutback_Feature_Switch_TA_Replacevalue
                0x00000000000418f8                bus_Configuration_1_sigMotorTempHotCutback_Feature_Switch_TA_Switchvalue
                0x00000000000418fc                bus_Configuration_1_sigMotorTempHotCutback_Feature_Switch_IO_Signal
                0x0000000000041900                bus_Configuration_1_sigMotorTempHotCutback_Feature_Switch_MDL_Signal
                0x0000000000041904                bus_Configuration_1_sigMotorTempHotCutback_Countdown_Start_Value_TA_Replacevalue
                0x0000000000041908                bus_Configuration_1_sigMotorTempHotCutback_Countdown_Start_Value_TA_Switchvalue
                0x000000000004190c                bus_Configuration_1_sigMotorTempHotCutback_Countdown_Start_Value_IO_Signal
                0x0000000000041910                bus_Configuration_1_sigMotorTempHotCutback_Countdown_Start_Value_MDL_Signal
                0x0000000000041914                bus_Configuration_1_sigMotorTempSensorFault_Overwrite_Value_TA_Replacevalue
                0x0000000000041915                bus_Configuration_1_sigMotorTempSensorFault_Overwrite_Value_TA_Switchvalue
                0x0000000000041916                bus_Configuration_1_sigMotorTempSensorFault_Overwrite_Value_IO_Signal
                0x0000000000041917                bus_Configuration_1_sigMotorTempSensorFault_Overwrite_Value_MDL_Signal
                0x0000000000041918                bus_Configuration_1_sigMotorTempSensorFault_Feature_Switch_TA_Replacevalue
                0x000000000004191c                bus_Configuration_1_sigMotorTempSensorFault_Feature_Switch_TA_Switchvalue
                0x0000000000041920                bus_Configuration_1_sigMotorTempSensorFault_Feature_Switch_IO_Signal
                0x0000000000041924                bus_Configuration_1_sigMotorTempSensorFault_Feature_Switch_MDL_Signal
                0x0000000000041928                bus_Configuration_1_sigMotorTempSensorFault_Countdown_Start_Value_TA_Replacevalue
                0x000000000004192c                bus_Configuration_1_sigMotorTempSensorFault_Countdown_Start_Value_TA_Switchvalue
                0x0000000000041930                bus_Configuration_1_sigMotorTempSensorFault_Countdown_Start_Value_IO_Signal
                0x0000000000041934                bus_Configuration_1_sigMotorTempSensorFault_Countdown_Start_Value_MDL_Signal
                0x0000000000041938                bus_Configuration_1_sigMainOpenShort_Overwrite_Value_TA_Replacevalue
                0x0000000000041939                bus_Configuration_1_sigMainOpenShort_Overwrite_Value_TA_Switchvalue
                0x000000000004193a                bus_Configuration_1_sigMainOpenShort_Overwrite_Value_IO_Signal
                0x000000000004193b                bus_Configuration_1_sigMainOpenShort_Overwrite_Value_MDL_Signal
                0x000000000004193c                bus_Configuration_1_sigMainOpenShort_Feature_Switch_TA_Replacevalue
                0x0000000000041940                bus_Configuration_1_sigMainOpenShort_Feature_Switch_TA_Switchvalue
                0x0000000000041944                bus_Configuration_1_sigMainOpenShort_Feature_Switch_IO_Signal
                0x0000000000041948                bus_Configuration_1_sigMainOpenShort_Feature_Switch_MDL_Signal
                0x000000000004194c                bus_Configuration_1_sigMainOpenShort_Countdown_Start_Value_TA_Replacevalue
                0x0000000000041950                bus_Configuration_1_sigMainOpenShort_Countdown_Start_Value_TA_Switchvalue
                0x0000000000041954                bus_Configuration_1_sigMainOpenShort_Countdown_Start_Value_IO_Signal
                0x0000000000041958                bus_Configuration_1_sigMainOpenShort_Countdown_Start_Value_MDL_Signal
                0x000000000004195c                bus_Configuration_1_sigSinCosSensorFault_Overwrite_Value_TA_Replacevalue
                0x000000000004195d                bus_Configuration_1_sigSinCosSensorFault_Overwrite_Value_TA_Switchvalue
                0x000000000004195e                bus_Configuration_1_sigSinCosSensorFault_Overwrite_Value_IO_Signal
                0x000000000004195f                bus_Configuration_1_sigSinCosSensorFault_Overwrite_Value_MDL_Signal
                0x0000000000041960                bus_Configuration_1_sigSinCosSensorFault_Feature_Switch_TA_Replacevalue
                0x0000000000041964                bus_Configuration_1_sigSinCosSensorFault_Feature_Switch_TA_Switchvalue
                0x0000000000041968                bus_Configuration_1_sigSinCosSensorFault_Feature_Switch_IO_Signal
                0x000000000004196c                bus_Configuration_1_sigSinCosSensorFault_Feature_Switch_MDL_Signal
                0x0000000000041970                bus_Configuration_1_sigSinCosSensorFault_Countdown_Start_Value_TA_Replacevalue
                0x0000000000041974                bus_Configuration_1_sigSinCosSensorFault_Countdown_Start_Value_TA_Switchvalue
                0x0000000000041978                bus_Configuration_1_sigSinCosSensorFault_Countdown_Start_Value_IO_Signal
                0x000000000004197c                bus_Configuration_1_sigSinCosSensorFault_Countdown_Start_Value_MDL_Signal
                0x0000000000041980                bus_Configuration_1_sigMotorPhaseOpen_Overwrite_Value_TA_Replacevalue
                0x0000000000041981                bus_Configuration_1_sigMotorPhaseOpen_Overwrite_Value_TA_Switchvalue
                0x0000000000041982                bus_Configuration_1_sigMotorPhaseOpen_Overwrite_Value_IO_Signal
                0x0000000000041983                bus_Configuration_1_sigMotorPhaseOpen_Overwrite_Value_MDL_Signal
                0x0000000000041984                bus_Configuration_1_sigMotorPhaseOpen_Feature_Switch_TA_Replacevalue
                0x0000000000041988                bus_Configuration_1_sigMotorPhaseOpen_Feature_Switch_TA_Switchvalue
                0x000000000004198c                bus_Configuration_1_sigMotorPhaseOpen_Feature_Switch_IO_Signal
                0x0000000000041990                bus_Configuration_1_sigMotorPhaseOpen_Feature_Switch_MDL_Signal
                0x0000000000041994                bus_Configuration_1_sigMotorPhaseOpen_Countdown_Start_Value_TA_Replacevalue
                0x0000000000041998                bus_Configuration_1_sigMotorPhaseOpen_Countdown_Start_Value_TA_Switchvalue
                0x000000000004199c                bus_Configuration_1_sigMotorPhaseOpen_Countdown_Start_Value_IO_Signal
                0x00000000000419a0                bus_Configuration_1_sigMotorPhaseOpen_Countdown_Start_Value_MDL_Signal
                0x00000000000419a4                bus_Configuration_1_sigMainContactorWelded_Overwrite_Value_TA_Replacevalue
                0x00000000000419a5                bus_Configuration_1_sigMainContactorWelded_Overwrite_Value_TA_Switchvalue
                0x00000000000419a6                bus_Configuration_1_sigMainContactorWelded_Overwrite_Value_IO_Signal
                0x00000000000419a7                bus_Configuration_1_sigMainContactorWelded_Overwrite_Value_MDL_Signal
                0x00000000000419a8                bus_Configuration_1_sigMainContactorWelded_Feature_Switch_TA_Replacevalue
                0x00000000000419ac                bus_Configuration_1_sigMainContactorWelded_Feature_Switch_TA_Switchvalue
                0x00000000000419b0                bus_Configuration_1_sigMainContactorWelded_Feature_Switch_IO_Signal
                0x00000000000419b4                bus_Configuration_1_sigMainContactorWelded_Feature_Switch_MDL_Signal
                0x00000000000419b8                bus_Configuration_1_sigMainContactorWelded_Countdown_Start_Value_TA_Replacevalue
                0x00000000000419bc                bus_Configuration_1_sigMainContactorWelded_Countdown_Start_Value_TA_Switchvalue
                0x00000000000419c0                bus_Configuration_1_sigMainContactorWelded_Countdown_Start_Value_IO_Signal
                0x00000000000419c4                bus_Configuration_1_sigMainContactorWelded_Countdown_Start_Value_MDL_Signal
                0x00000000000419c8                bus_Configuration_1_sigMainContactordidnotClose_Overwrite_Value_TA_Replacevalue
                0x00000000000419c9                bus_Configuration_1_sigMainContactordidnotClose_Overwrite_Value_TA_Switchvalue
                0x00000000000419ca                bus_Configuration_1_sigMainContactordidnotClose_Overwrite_Value_IO_Signal
                0x00000000000419cb                bus_Configuration_1_sigMainContactordidnotClose_Overwrite_Value_MDL_Signal
                0x00000000000419cc                bus_Configuration_1_sigMainContactordidnotClose_Feature_Switch_TA_Replacevalue
                0x00000000000419d0                bus_Configuration_1_sigMainContactordidnotClose_Feature_Switch_TA_Switchvalue
                0x00000000000419d4                bus_Configuration_1_sigMainContactordidnotClose_Feature_Switch_IO_Signal
                0x00000000000419d8                bus_Configuration_1_sigMainContactordidnotClose_Feature_Switch_MDL_Signal
                0x00000000000419dc                bus_Configuration_1_sigMainContactordidnotClose_Countdown_Start_Value_TA_Replacevalue
                0x00000000000419e0                bus_Configuration_1_sigMainContactordidnotClose_Countdown_Start_Value_TA_Switchvalue
                0x00000000000419e4                bus_Configuration_1_sigMainContactordidnotClose_Countdown_Start_Value_IO_Signal
                0x00000000000419e8                bus_Configuration_1_sigMainContactordidnotClose_Countdown_Start_Value_MDL_Signal
                0x00000000000419ec                bus_Configuration_1_sigThrottlewiperHigh_Overwrite_Value_TA_Replacevalue
                0x00000000000419ed                bus_Configuration_1_sigThrottlewiperHigh_Overwrite_Value_TA_Switchvalue
                0x00000000000419ee                bus_Configuration_1_sigThrottlewiperHigh_Overwrite_Value_IO_Signal
                0x00000000000419ef                bus_Configuration_1_sigThrottlewiperHigh_Overwrite_Value_MDL_Signal
                0x00000000000419f0                bus_Configuration_1_sigThrottlewiperHigh_Feature_Switch_TA_Replacevalue
                0x00000000000419f4                bus_Configuration_1_sigThrottlewiperHigh_Feature_Switch_TA_Switchvalue
                0x00000000000419f8                bus_Configuration_1_sigThrottlewiperHigh_Feature_Switch_IO_Signal
                0x00000000000419fc                bus_Configuration_1_sigThrottlewiperHigh_Feature_Switch_MDL_Signal
                0x0000000000041a00                bus_Configuration_1_sigThrottlewiperHigh_Countdown_Start_Value_TA_Replacevalue
                0x0000000000041a04                bus_Configuration_1_sigThrottlewiperHigh_Countdown_Start_Value_TA_Switchvalue
                0x0000000000041a08                bus_Configuration_1_sigThrottlewiperHigh_Countdown_Start_Value_IO_Signal
                0x0000000000041a0c                bus_Configuration_1_sigThrottlewiperHigh_Countdown_Start_Value_MDL_Signal
                0x0000000000041a10                bus_Configuration_1_sigThrottlewiperLow_Overwrite_Value_TA_Replacevalue
                0x0000000000041a11                bus_Configuration_1_sigThrottlewiperLow_Overwrite_Value_TA_Switchvalue
                0x0000000000041a12                bus_Configuration_1_sigThrottlewiperLow_Overwrite_Value_IO_Signal
                0x0000000000041a13                bus_Configuration_1_sigThrottlewiperLow_Overwrite_Value_MDL_Signal
                0x0000000000041a14                bus_Configuration_1_sigThrottlewiperLow_Feature_Switch_TA_Replacevalue
                0x0000000000041a18                bus_Configuration_1_sigThrottlewiperLow_Feature_Switch_TA_Switchvalue
                0x0000000000041a1c                bus_Configuration_1_sigThrottlewiperLow_Feature_Switch_IO_Signal
                0x0000000000041a20                bus_Configuration_1_sigThrottlewiperLow_Feature_Switch_MDL_Signal
                0x0000000000041a24                bus_Configuration_1_sigThrottlewiperLow_Countdown_Start_Value_TA_Replacevalue
                0x0000000000041a28                bus_Configuration_1_sigThrottlewiperLow_Countdown_Start_Value_TA_Switchvalue
                0x0000000000041a2c                bus_Configuration_1_sigThrottlewiperLow_Countdown_Start_Value_IO_Signal
                0x0000000000041a30                bus_Configuration_1_sigThrottlewiperLow_Countdown_Start_Value_MDL_Signal
                0x0000000000041a34                bus_Configuration_1_sigEEPROMFailure_Overwrite_Value_TA_Replacevalue
                0x0000000000041a35                bus_Configuration_1_sigEEPROMFailure_Overwrite_Value_TA_Switchvalue
                0x0000000000041a36                bus_Configuration_1_sigEEPROMFailure_Overwrite_Value_IO_Signal
                0x0000000000041a37                bus_Configuration_1_sigEEPROMFailure_Overwrite_Value_MDL_Signal
                0x0000000000041a38                bus_Configuration_1_sigEEPROMFailure_Feature_Switch_TA_Replacevalue
                0x0000000000041a3c                bus_Configuration_1_sigEEPROMFailure_Feature_Switch_TA_Switchvalue
                0x0000000000041a40                bus_Configuration_1_sigEEPROMFailure_Feature_Switch_IO_Signal
                0x0000000000041a44                bus_Configuration_1_sigEEPROMFailure_Feature_Switch_MDL_Signal
                0x0000000000041a48                bus_Configuration_1_sigEEPROMFailure_Countdown_Start_Value_TA_Replacevalue
                0x0000000000041a4c                bus_Configuration_1_sigEEPROMFailure_Countdown_Start_Value_TA_Switchvalue
                0x0000000000041a50                bus_Configuration_1_sigEEPROMFailure_Countdown_Start_Value_IO_Signal
                0x0000000000041a54                bus_Configuration_1_sigEEPROMFailure_Countdown_Start_Value_MDL_Signal
                0x0000000000041a58                bus_Configuration_1_sigVCLRunTimeError_Overwrite_Value_TA_Replacevalue
                0x0000000000041a59                bus_Configuration_1_sigVCLRunTimeError_Overwrite_Value_TA_Switchvalue
                0x0000000000041a5a                bus_Configuration_1_sigVCLRunTimeError_Overwrite_Value_IO_Signal
                0x0000000000041a5b                bus_Configuration_1_sigVCLRunTimeError_Overwrite_Value_MDL_Signal
                0x0000000000041a5c                bus_Configuration_1_sigVCLRunTimeError_Feature_Switch_TA_Replacevalue
                0x0000000000041a60                bus_Configuration_1_sigVCLRunTimeError_Feature_Switch_TA_Switchvalue
                0x0000000000041a64                bus_Configuration_1_sigVCLRunTimeError_Feature_Switch_IO_Signal
                0x0000000000041a68                bus_Configuration_1_sigVCLRunTimeError_Feature_Switch_MDL_Signal
                0x0000000000041a6c                bus_Configuration_1_sigVCLRunTimeError_Countdown_Start_Value_TA_Replacevalue
                0x0000000000041a70                bus_Configuration_1_sigVCLRunTimeError_Countdown_Start_Value_TA_Switchvalue
                0x0000000000041a74                bus_Configuration_1_sigVCLRunTimeError_Countdown_Start_Value_IO_Signal
                0x0000000000041a78                bus_Configuration_1_sigVCLRunTimeError_Countdown_Start_Value_MDL_Signal
                0x0000000000041a7c                bus_Configuration_1_sigMotorCharacterization_Overwrite_Value_TA_Replacevalue
                0x0000000000041a7d                bus_Configuration_1_sigMotorCharacterization_Overwrite_Value_TA_Switchvalue
                0x0000000000041a7e                bus_Configuration_1_sigMotorCharacterization_Overwrite_Value_IO_Signal
                0x0000000000041a7f                bus_Configuration_1_sigMotorCharacterization_Overwrite_Value_MDL_Signal
                0x0000000000041a80                bus_Configuration_1_sigMotorCharacterization_Feature_Switch_TA_Replacevalue
                0x0000000000041a84                bus_Configuration_1_sigMotorCharacterization_Feature_Switch_TA_Switchvalue
                0x0000000000041a88                bus_Configuration_1_sigMotorCharacterization_Feature_Switch_IO_Signal
                0x0000000000041a8c                bus_Configuration_1_sigMotorCharacterization_Feature_Switch_MDL_Signal
                0x0000000000041a90                bus_Configuration_1_sigMotorCharacterization_Countdown_Start_Value_TA_Replacevalue
                0x0000000000041a94                bus_Configuration_1_sigMotorCharacterization_Countdown_Start_Value_TA_Switchvalue
                0x0000000000041a98                bus_Configuration_1_sigMotorCharacterization_Countdown_Start_Value_IO_Signal
                0x0000000000041a9c                bus_Configuration_1_sigMotorCharacterization_Countdown_Start_Value_MDL_Signal
                0x0000000000041aa0                bus_Configuration_1_sigParameterChangeFault_Overwrite_Value_TA_Replacevalue
                0x0000000000041aa1                bus_Configuration_1_sigParameterChangeFault_Overwrite_Value_TA_Switchvalue
                0x0000000000041aa2                bus_Configuration_1_sigParameterChangeFault_Overwrite_Value_IO_Signal
                0x0000000000041aa3                bus_Configuration_1_sigParameterChangeFault_Overwrite_Value_MDL_Signal
                0x0000000000041aa4                bus_Configuration_1_sigParameterChangeFault_Feature_Switch_TA_Replacevalue
                0x0000000000041aa8                bus_Configuration_1_sigParameterChangeFault_Feature_Switch_TA_Switchvalue
                0x0000000000041aac                bus_Configuration_1_sigParameterChangeFault_Feature_Switch_IO_Signal
                0x0000000000041ab0                bus_Configuration_1_sigParameterChangeFault_Feature_Switch_MDL_Signal
                0x0000000000041ab4                bus_Configuration_1_sigParameterChangeFault_Countdown_Start_Value_TA_Replacevalue
                0x0000000000041ab8                bus_Configuration_1_sigParameterChangeFault_Countdown_Start_Value_TA_Switchvalue
                0x0000000000041abc                bus_Configuration_1_sigParameterChangeFault_Countdown_Start_Value_IO_Signal
                0x0000000000041ac0                bus_Configuration_1_sigParameterChangeFault_Countdown_Start_Value_MDL_Signal
                0x0000000000041ac4                bus_Configuration_1_sigStallDetected_Overwrite_Value_TA_Replacevalue
                0x0000000000041ac5                bus_Configuration_1_sigStallDetected_Overwrite_Value_TA_Switchvalue
                0x0000000000041ac6                bus_Configuration_1_sigStallDetected_Overwrite_Value_IO_Signal
                0x0000000000041ac7                bus_Configuration_1_sigStallDetected_Overwrite_Value_MDL_Signal
                0x0000000000041ac8                bus_Configuration_1_sigStallDetected_Feature_Switch_TA_Replacevalue
                0x0000000000041acc                bus_Configuration_1_sigStallDetected_Feature_Switch_TA_Switchvalue
                0x0000000000041ad0                bus_Configuration_1_sigStallDetected_Feature_Switch_IO_Signal
                0x0000000000041ad4                bus_Configuration_1_sigStallDetected_Feature_Switch_MDL_Signal
                0x0000000000041ad8                bus_Configuration_1_sigStallDetected_Countdown_Start_Value_TA_Replacevalue
                0x0000000000041adc                bus_Configuration_1_sigStallDetected_Countdown_Start_Value_TA_Switchvalue
                0x0000000000041ae0                bus_Configuration_1_sigStallDetected_Countdown_Start_Value_IO_Signal
                0x0000000000041ae4                bus_Configuration_1_sigStallDetected_Countdown_Start_Value_MDL_Signal
                0x0000000000041ae8                bus_Configuration_1_sigBrakeWiperHigh_Overwrite_Value_TA_Replacevalue
                0x0000000000041ae9                bus_Configuration_1_sigBrakeWiperHigh_Overwrite_Value_TA_Switchvalue
                0x0000000000041aea                bus_Configuration_1_sigBrakeWiperHigh_Overwrite_Value_IO_Signal
                0x0000000000041aeb                bus_Configuration_1_sigBrakeWiperHigh_Overwrite_Value_MDL_Signal
                0x0000000000041aec                bus_Configuration_1_sigBrakeWiperHigh_Feature_Switch_TA_Replacevalue
                0x0000000000041af0                bus_Configuration_1_sigBrakeWiperHigh_Feature_Switch_TA_Switchvalue
                0x0000000000041af4                bus_Configuration_1_sigBrakeWiperHigh_Feature_Switch_IO_Signal
                0x0000000000041af8                bus_Configuration_1_sigBrakeWiperHigh_Feature_Switch_MDL_Signal
                0x0000000000041afc                bus_Configuration_1_sigBrakeWiperHigh_Countdown_Start_Value_TA_Replacevalue
                0x0000000000041b00                bus_Configuration_1_sigBrakeWiperHigh_Countdown_Start_Value_TA_Switchvalue
                0x0000000000041b04                bus_Configuration_1_sigBrakeWiperHigh_Countdown_Start_Value_IO_Signal
                0x0000000000041b08                bus_Configuration_1_sigBrakeWiperHigh_Countdown_Start_Value_MDL_Signal
                0x0000000000041b0c                bus_Configuration_1_sigBrakeWiperLow_Overwrite_Value_TA_Replacevalue
                0x0000000000041b0d                bus_Configuration_1_sigBrakeWiperLow_Overwrite_Value_TA_Switchvalue
                0x0000000000041b0e                bus_Configuration_1_sigBrakeWiperLow_Overwrite_Value_IO_Signal
                0x0000000000041b0f                bus_Configuration_1_sigBrakeWiperLow_Overwrite_Value_MDL_Signal
                0x0000000000041b10                bus_Configuration_1_sigBrakeWiperLow_Feature_Switch_TA_Replacevalue
                0x0000000000041b14                bus_Configuration_1_sigBrakeWiperLow_Feature_Switch_TA_Switchvalue
                0x0000000000041b18                bus_Configuration_1_sigBrakeWiperLow_Feature_Switch_IO_Signal
                0x0000000000041b1c                bus_Configuration_1_sigBrakeWiperLow_Feature_Switch_MDL_Signal
                0x0000000000041b20                bus_Configuration_1_sigBrakeWiperLow_Countdown_Start_Value_TA_Replacevalue
                0x0000000000041b24                bus_Configuration_1_sigBrakeWiperLow_Countdown_Start_Value_TA_Switchvalue
                0x0000000000041b28                bus_Configuration_1_sigBrakeWiperLow_Countdown_Start_Value_IO_Signal
                0x0000000000041b2c                bus_Configuration_1_sigBrakeWiperLow_Countdown_Start_Value_MDL_Signal
                0x0000000000041b30                bus_Configuration_1_sigHighPedalDisable_Overwrite_Value_TA_Replacevalue
                0x0000000000041b31                bus_Configuration_1_sigHighPedalDisable_Overwrite_Value_TA_Switchvalue
                0x0000000000041b32                bus_Configuration_1_sigHighPedalDisable_Overwrite_Value_IO_Signal
                0x0000000000041b33                bus_Configuration_1_sigHighPedalDisable_Overwrite_Value_MDL_Signal
                0x0000000000041b34                bus_Configuration_1_sigHighPedalDisable_Feature_Switch_TA_Replacevalue
                0x0000000000041b38                bus_Configuration_1_sigHighPedalDisable_Feature_Switch_TA_Switchvalue
                0x0000000000041b3c                bus_Configuration_1_sigHighPedalDisable_Feature_Switch_IO_Signal
                0x0000000000041b40                bus_Configuration_1_sigHighPedalDisable_Feature_Switch_MDL_Signal
                0x0000000000041b44                bus_Configuration_1_sigHighPedalDisable_Countdown_Start_Value_TA_Replacevalue
                0x0000000000041b48                bus_Configuration_1_sigHighPedalDisable_Countdown_Start_Value_TA_Switchvalue
                0x0000000000041b4c                bus_Configuration_1_sigHighPedalDisable_Countdown_Start_Value_IO_Signal
                0x0000000000041b50                bus_Configuration_1_sigHighPedalDisable_Countdown_Start_Value_MDL_Signal
                0x0000000000041b54                bus_Configuration_1_sigCoil4DriverOpenShort_Overwrite_Value_TA_Replacevalue
                0x0000000000041b55                bus_Configuration_1_sigCoil4DriverOpenShort_Overwrite_Value_TA_Switchvalue
                0x0000000000041b56                bus_Configuration_1_sigCoil4DriverOpenShort_Overwrite_Value_IO_Signal
                0x0000000000041b57                bus_Configuration_1_sigCoil4DriverOpenShort_Overwrite_Value_MDL_Signal
                0x0000000000041b58                bus_Configuration_1_sigCoil4DriverOpenShort_Feature_Switch_TA_Replacevalue
                0x0000000000041b5c                bus_Configuration_1_sigCoil4DriverOpenShort_Feature_Switch_TA_Switchvalue
                0x0000000000041b60                bus_Configuration_1_sigCoil4DriverOpenShort_Feature_Switch_IO_Signal
                0x0000000000041b64                bus_Configuration_1_sigCoil4DriverOpenShort_Feature_Switch_MDL_Signal
                0x0000000000041b68                bus_Configuration_1_sigCoil4DriverOpenShort_Countdown_Start_Value_TA_Replacevalue
                0x0000000000041b6c                bus_Configuration_1_sigCoil4DriverOpenShort_Countdown_Start_Value_TA_Switchvalue
                0x0000000000041b70                bus_Configuration_1_sigCoil4DriverOpenShort_Countdown_Start_Value_IO_Signal
                0x0000000000041b74                bus_Configuration_1_sigCoil4DriverOpenShort_Countdown_Start_Value_MDL_Signal
                0x0000000000041b78                bus_Configuration_1_sigCoil3DriverOpenShort_Overwrite_Value_TA_Replacevalue
                0x0000000000041b79                bus_Configuration_1_sigCoil3DriverOpenShort_Overwrite_Value_TA_Switchvalue
                0x0000000000041b7a                bus_Configuration_1_sigCoil3DriverOpenShort_Overwrite_Value_IO_Signal
                0x0000000000041b7b                bus_Configuration_1_sigCoil3DriverOpenShort_Overwrite_Value_MDL_Signal
                0x0000000000041b7c                bus_Configuration_1_sigCoil3DriverOpenShort_Feature_Switch_TA_Replacevalue
                0x0000000000041b80                bus_Configuration_1_sigCoil3DriverOpenShort_Feature_Switch_TA_Switchvalue
                0x0000000000041b84                bus_Configuration_1_sigCoil3DriverOpenShort_Feature_Switch_IO_Signal
                0x0000000000041b88                bus_Configuration_1_sigCoil3DriverOpenShort_Feature_Switch_MDL_Signal
                0x0000000000041b8c                bus_Configuration_1_sigCoil3DriverOpenShort_Countdown_Start_Value_TA_Replacevalue
                0x0000000000041b90                bus_Configuration_1_sigCoil3DriverOpenShort_Countdown_Start_Value_TA_Switchvalue
                0x0000000000041b94                bus_Configuration_1_sigCoil3DriverOpenShort_Countdown_Start_Value_IO_Signal
                0x0000000000041b98                bus_Configuration_1_sigCoil3DriverOpenShort_Countdown_Start_Value_MDL_Signal
                0x0000000000041b9c                bus_Configuration_1_sigSupervisorFault_Overwrite_Value_TA_Replacevalue
                0x0000000000041b9d                bus_Configuration_1_sigSupervisorFault_Overwrite_Value_TA_Switchvalue
                0x0000000000041b9e                bus_Configuration_1_sigSupervisorFault_Overwrite_Value_IO_Signal
                0x0000000000041b9f                bus_Configuration_1_sigSupervisorFault_Overwrite_Value_MDL_Signal
                0x0000000000041ba0                bus_Configuration_1_sigSupervisorFault_Feature_Switch_TA_Replacevalue
                0x0000000000041ba4                bus_Configuration_1_sigSupervisorFault_Feature_Switch_TA_Switchvalue
                0x0000000000041ba8                bus_Configuration_1_sigSupervisorFault_Feature_Switch_IO_Signal
                0x0000000000041bac                bus_Configuration_1_sigSupervisorFault_Feature_Switch_MDL_Signal
                0x0000000000041bb0                bus_Configuration_1_sigSupervisorFault_Countdown_Start_Value_TA_Replacevalue
                0x0000000000041bb4                bus_Configuration_1_sigSupervisorFault_Countdown_Start_Value_TA_Switchvalue
                0x0000000000041bb8                bus_Configuration_1_sigSupervisorFault_Countdown_Start_Value_IO_Signal
                0x0000000000041bbc                bus_Configuration_1_sigSupervisorFault_Countdown_Start_Value_MDL_Signal
                0x0000000000041bc0                bus_Configuration_1_sigBadCalibration_Overwrite_Value_TA_Replacevalue
                0x0000000000041bc1                bus_Configuration_1_sigBadCalibration_Overwrite_Value_TA_Switchvalue
                0x0000000000041bc2                bus_Configuration_1_sigBadCalibration_Overwrite_Value_IO_Signal
                0x0000000000041bc3                bus_Configuration_1_sigBadCalibration_Overwrite_Value_MDL_Signal
                0x0000000000041bc4                bus_Configuration_1_sigBadCalibration_Feature_Switch_TA_Replacevalue
                0x0000000000041bc8                bus_Configuration_1_sigBadCalibration_Feature_Switch_TA_Switchvalue
                0x0000000000041bcc                bus_Configuration_1_sigBadCalibration_Feature_Switch_IO_Signal
                0x0000000000041bd0                bus_Configuration_1_sigBadCalibration_Feature_Switch_MDL_Signal
                0x0000000000041bd4                bus_Configuration_1_sigBadCalibration_Countdown_Start_Value_TA_Replacevalue
                0x0000000000041bd8                bus_Configuration_1_sigBadCalibration_Countdown_Start_Value_TA_Switchvalue
                0x0000000000041bdc                bus_Configuration_1_sigBadCalibration_Countdown_Start_Value_IO_Signal
                0x0000000000041be0                bus_Configuration_1_sigBadCalibration_Countdown_Start_Value_MDL_Signal
                0x0000000000041be4                bus_Configuration_1_sigPMACCommissioningNeeded_Overwrite_Value_TA_Replacevalue
                0x0000000000041be5                bus_Configuration_1_sigPMACCommissioningNeeded_Overwrite_Value_TA_Switchvalue
                0x0000000000041be6                bus_Configuration_1_sigPMACCommissioningNeeded_Overwrite_Value_IO_Signal
                0x0000000000041be7                bus_Configuration_1_sigPMACCommissioningNeeded_Overwrite_Value_MDL_Signal
                0x0000000000041be8                bus_Configuration_1_sigPMACCommissioningNeeded_Feature_Switch_TA_Replacevalue
                0x0000000000041bec                bus_Configuration_1_sigPMACCommissioningNeeded_Feature_Switch_TA_Switchvalue
                0x0000000000041bf0                bus_Configuration_1_sigPMACCommissioningNeeded_Feature_Switch_IO_Signal
                0x0000000000041bf4                bus_Configuration_1_sigPMACCommissioningNeeded_Feature_Switch_MDL_Signal
                0x0000000000041bf8                bus_Configuration_1_sigPMACCommissioningNeeded_Countdown_Start_Value_TA_Replacevalue
                0x0000000000041bfc                bus_Configuration_1_sigPMACCommissioningNeeded_Countdown_Start_Value_TA_Switchvalue
                0x0000000000041c00                bus_Configuration_1_sigPMACCommissioningNeeded_Countdown_Start_Value_IO_Signal
                0x0000000000041c04                bus_Configuration_1_sigPMACCommissioningNeeded_Countdown_Start_Value_MDL_Signal
                0x0000000000041c08                bus_Configuration_1_sigSinCosMisalignment_Overwrite_Value_TA_Replacevalue
                0x0000000000041c09                bus_Configuration_1_sigSinCosMisalignment_Overwrite_Value_TA_Switchvalue
                0x0000000000041c0a                bus_Configuration_1_sigSinCosMisalignment_Overwrite_Value_IO_Signal
                0x0000000000041c0b                bus_Configuration_1_sigSinCosMisalignment_Overwrite_Value_MDL_Signal
                0x0000000000041c0c                bus_Configuration_1_sigSinCosMisalignment_Feature_Switch_TA_Replacevalue
                0x0000000000041c10                bus_Configuration_1_sigSinCosMisalignment_Feature_Switch_TA_Switchvalue
                0x0000000000041c14                bus_Configuration_1_sigSinCosMisalignment_Feature_Switch_IO_Signal
                0x0000000000041c18                bus_Configuration_1_sigSinCosMisalignment_Feature_Switch_MDL_Signal
                0x0000000000041c1c                bus_Configuration_1_sigSinCosMisalignment_Countdown_Start_Value_TA_Replacevalue
                0x0000000000041c20                bus_Configuration_1_sigSinCosMisalignment_Countdown_Start_Value_TA_Switchvalue
                0x0000000000041c24                bus_Configuration_1_sigSinCosMisalignment_Countdown_Start_Value_IO_Signal
                0x0000000000041c28                bus_Configuration_1_sigSinCosMisalignment_Countdown_Start_Value_MDL_Signal
                0x0000000000041c2c                bus_Configuration_1_sigPhasePWMMismatch_Overwrite_Value_TA_Replacevalue
                0x0000000000041c2d                bus_Configuration_1_sigPhasePWMMismatch_Overwrite_Value_TA_Switchvalue
                0x0000000000041c2e                bus_Configuration_1_sigPhasePWMMismatch_Overwrite_Value_IO_Signal
                0x0000000000041c2f                bus_Configuration_1_sigPhasePWMMismatch_Overwrite_Value_MDL_Signal
                0x0000000000041c30                bus_Configuration_1_sigPhasePWMMismatch_Feature_Switch_TA_Replacevalue
                0x0000000000041c34                bus_Configuration_1_sigPhasePWMMismatch_Feature_Switch_TA_Switchvalue
                0x0000000000041c38                bus_Configuration_1_sigPhasePWMMismatch_Feature_Switch_IO_Signal
                0x0000000000041c3c                bus_Configuration_1_sigPhasePWMMismatch_Feature_Switch_MDL_Signal
                0x0000000000041c40                bus_Configuration_1_sigPhasePWMMismatch_Countdown_Start_Value_TA_Replacevalue
                0x0000000000041c44                bus_Configuration_1_sigPhasePWMMismatch_Countdown_Start_Value_TA_Switchvalue
                0x0000000000041c48                bus_Configuration_1_sigPhasePWMMismatch_Countdown_Start_Value_IO_Signal
                0x0000000000041c4c                bus_Configuration_1_sigPhasePWMMismatch_Countdown_Start_Value_MDL_Signal
                0x0000000000041c50                bus_Configuration_1_sigInsulationResistanceLow_Overwrite_Value_TA_Replacevalue
                0x0000000000041c51                bus_Configuration_1_sigInsulationResistanceLow_Overwrite_Value_TA_Switchvalue
                0x0000000000041c52                bus_Configuration_1_sigInsulationResistanceLow_Overwrite_Value_IO_Signal
                0x0000000000041c53                bus_Configuration_1_sigInsulationResistanceLow_Overwrite_Value_MDL_Signal
                0x0000000000041c54                bus_Configuration_1_sigInsulationResistanceLow_Feature_Switch_TA_Replacevalue
                0x0000000000041c58                bus_Configuration_1_sigInsulationResistanceLow_Feature_Switch_TA_Switchvalue
                0x0000000000041c5c                bus_Configuration_1_sigInsulationResistanceLow_Feature_Switch_IO_Signal
                0x0000000000041c60                bus_Configuration_1_sigInsulationResistanceLow_Feature_Switch_MDL_Signal
                0x0000000000041c64                bus_Configuration_1_sigInsulationResistanceLow_Countdown_Start_Value_TA_Replacevalue
                0x0000000000041c68                bus_Configuration_1_sigInsulationResistanceLow_Countdown_Start_Value_TA_Switchvalue
                0x0000000000041c6c                bus_Configuration_1_sigInsulationResistanceLow_Countdown_Start_Value_IO_Signal
                0x0000000000041c70                bus_Configuration_1_sigInsulationResistanceLow_Countdown_Start_Value_MDL_Signal
                0x0000000000041c74                bus_Configuration_1_sigOSGeneral_Overwrite_Value_TA_Replacevalue
                0x0000000000041c75                bus_Configuration_1_sigOSGeneral_Overwrite_Value_TA_Switchvalue
                0x0000000000041c76                bus_Configuration_1_sigOSGeneral_Overwrite_Value_IO_Signal
                0x0000000000041c77                bus_Configuration_1_sigOSGeneral_Overwrite_Value_MDL_Signal
                0x0000000000041c78                bus_Configuration_1_sigOSGeneral_Feature_Switch_TA_Replacevalue
                0x0000000000041c7c                bus_Configuration_1_sigOSGeneral_Feature_Switch_TA_Switchvalue
                0x0000000000041c80                bus_Configuration_1_sigOSGeneral_Feature_Switch_IO_Signal
                0x0000000000041c84                bus_Configuration_1_sigOSGeneral_Feature_Switch_MDL_Signal
                0x0000000000041c88                bus_Configuration_1_sigOSGeneral_Countdown_Start_Value_TA_Replacevalue
                0x0000000000041c8c                bus_Configuration_1_sigOSGeneral_Countdown_Start_Value_TA_Switchvalue
                0x0000000000041c90                bus_Configuration_1_sigOSGeneral_Countdown_Start_Value_IO_Signal
                0x0000000000041c94                bus_Configuration_1_sigOSGeneral_Countdown_Start_Value_MDL_Signal
                0x0000000000041c98                bus_Configuration_1_sigOEM_NoBatteryCAN_Overwrite_Value_TA_Replacevalue
                0x0000000000041c99                bus_Configuration_1_sigOEM_NoBatteryCAN_Overwrite_Value_TA_Switchvalue
                0x0000000000041c9a                bus_Configuration_1_sigOEM_NoBatteryCAN_Overwrite_Value_IO_Signal
                0x0000000000041c9b                bus_Configuration_1_sigOEM_NoBatteryCAN_Overwrite_Value_MDL_Signal
                0x0000000000041c9c                bus_Configuration_1_sigOEM_NoBatteryCAN_Feature_Switch_TA_Replacevalue
                0x0000000000041ca0                bus_Configuration_1_sigOEM_NoBatteryCAN_Feature_Switch_TA_Switchvalue
                0x0000000000041ca4                bus_Configuration_1_sigOEM_NoBatteryCAN_Feature_Switch_IO_Signal
                0x0000000000041ca8                bus_Configuration_1_sigOEM_NoBatteryCAN_Feature_Switch_MDL_Signal
                0x0000000000041cac                bus_Configuration_1_sigOEM_NoBatteryCAN_Countdown_Start_Value_TA_Replacevalue
                0x0000000000041cb0                bus_Configuration_1_sigOEM_NoBatteryCAN_Countdown_Start_Value_TA_Switchvalue
                0x0000000000041cb4                bus_Configuration_1_sigOEM_NoBatteryCAN_Countdown_Start_Value_IO_Signal
                0x0000000000041cb8                bus_Configuration_1_sigOEM_NoBatteryCAN_Countdown_Start_Value_MDL_Signal
                0x0000000000041cbc                bus_Configuration_1_sigOEM_BatterySTOPSignal_Overwrite_Value_TA_Replacevalue
                0x0000000000041cbd                bus_Configuration_1_sigOEM_BatterySTOPSignal_Overwrite_Value_TA_Switchvalue
                0x0000000000041cbe                bus_Configuration_1_sigOEM_BatterySTOPSignal_Overwrite_Value_IO_Signal
                0x0000000000041cbf                bus_Configuration_1_sigOEM_BatterySTOPSignal_Overwrite_Value_MDL_Signal
                0x0000000000041cc0                bus_Configuration_1_sigOEM_BatterySTOPSignal_Feature_Switch_TA_Replacevalue
                0x0000000000041cc4                bus_Configuration_1_sigOEM_BatterySTOPSignal_Feature_Switch_TA_Switchvalue
                0x0000000000041cc8                bus_Configuration_1_sigOEM_BatterySTOPSignal_Feature_Switch_IO_Signal
                0x0000000000041ccc                bus_Configuration_1_sigOEM_BatterySTOPSignal_Feature_Switch_MDL_Signal
                0x0000000000041cd0                bus_Configuration_1_sigOEM_BatterySTOPSignal_Countdown_Start_Value_TA_Replacevalue
                0x0000000000041cd4                bus_Configuration_1_sigOEM_BatterySTOPSignal_Countdown_Start_Value_TA_Switchvalue
                0x0000000000041cd8                bus_Configuration_1_sigOEM_BatterySTOPSignal_Countdown_Start_Value_IO_Signal
                0x0000000000041cdc                bus_Configuration_1_sigOEM_BatterySTOPSignal_Countdown_Start_Value_MDL_Signal
                0x0000000000041ce0                bus_Configuration_1_sigCoil2DriverOpenShort_Overwrite_Value_TA_Replacevalue
                0x0000000000041ce1                bus_Configuration_1_sigCoil2DriverOpenShort_Overwrite_Value_TA_Switchvalue
                0x0000000000041ce2                bus_Configuration_1_sigCoil2DriverOpenShort_Overwrite_Value_IO_Signal
                0x0000000000041ce3                bus_Configuration_1_sigCoil2DriverOpenShort_Overwrite_Value_MDL_Signal
                0x0000000000041ce4                bus_Configuration_1_sigCoil2DriverOpenShort_Feature_Switch_TA_Replacevalue
                0x0000000000041ce8                bus_Configuration_1_sigCoil2DriverOpenShort_Feature_Switch_TA_Switchvalue
                0x0000000000041cec                bus_Configuration_1_sigCoil2DriverOpenShort_Feature_Switch_IO_Signal
                0x0000000000041cf0                bus_Configuration_1_sigCoil2DriverOpenShort_Feature_Switch_MDL_Signal
                0x0000000000041cf4                bus_Configuration_1_sigCoil2DriverOpenShort_Countdown_Start_Value_TA_Replacevalue
                0x0000000000041cf8                bus_Configuration_1_sigCoil2DriverOpenShort_Countdown_Start_Value_TA_Switchvalue
                0x0000000000041cfc                bus_Configuration_1_sigCoil2DriverOpenShort_Countdown_Start_Value_IO_Signal
                0x0000000000041d00                bus_Configuration_1_sigCoil2DriverOpenShort_Countdown_Start_Value_MDL_Signal
                0x0000000000041d04                bus_Configuration_1_Controller_CompleteFaults_Overwrite_Value_TA_Replacevalue
                0x0000000000041d05                bus_Configuration_1_Controller_CompleteFaults_Overwrite_Value_TA_Switchvalue
                0x0000000000041d06                bus_Configuration_1_Controller_CompleteFaults_Overwrite_Value_IO_Signal
                0x0000000000041d07                bus_Configuration_1_Controller_CompleteFaults_Overwrite_Value_MDL_Signal
                0x0000000000041d08                bus_Configuration_1_Controller_CompleteFaults_Feature_Switch_TA_Replacevalue
                0x0000000000041d0c                bus_Configuration_1_Controller_CompleteFaults_Feature_Switch_TA_Switchvalue
                0x0000000000041d10                bus_Configuration_1_Controller_CompleteFaults_Feature_Switch_IO_Signal
                0x0000000000041d14                bus_Configuration_1_Controller_CompleteFaults_Feature_Switch_MDL_Signal
                0x0000000000041d18                bus_Configuration_1_Controller_CompleteFaults_Countdown_Start_Value_TA_Replacevalue
                0x0000000000041d1c                bus_Configuration_1_Controller_CompleteFaults_Countdown_Start_Value_TA_Switchvalue
                0x0000000000041d20                bus_Configuration_1_Controller_CompleteFaults_Countdown_Start_Value_IO_Signal
                0x0000000000041d24                bus_Configuration_1_Controller_CompleteFaults_Countdown_Start_Value_MDL_Signal
                0x0000000000041d28                bus_Configuration_1_sigMCU6_Odometer_Overwrite_Value_TA_Replacevalue
                0x0000000000041d30                bus_Configuration_1_sigMCU6_Odometer_Overwrite_Value_TA_Switchvalue
                0x0000000000041d38                bus_Configuration_1_sigMCU6_Odometer_Overwrite_Value_IO_Signal
                0x0000000000041d40                bus_Configuration_1_sigMCU6_Odometer_Overwrite_Value_MDL_Signal
                0x0000000000041d48                BM_value_16340
                0x0000000000041d50                bus_Configuration_1_sigMCU6_Odometer_Feature_Switch_TA_Replacevalue
                0x0000000000041d54                bus_Configuration_1_sigMCU6_Odometer_Feature_Switch_TA_Switchvalue
                0x0000000000041d58                bus_Configuration_1_sigMCU6_Odometer_Feature_Switch_IO_Signal
                0x0000000000041d5c                bus_Configuration_1_sigMCU6_Odometer_Feature_Switch_MDL_Signal
                0x0000000000041d60                bus_Configuration_1_sigMCU6_Odometer_Countdown_Start_Value_TA_Replacevalue
                0x0000000000041d64                bus_Configuration_1_sigMCU6_Odometer_Countdown_Start_Value_TA_Switchvalue
                0x0000000000041d68                bus_Configuration_1_sigMCU6_Odometer_Countdown_Start_Value_IO_Signal
                0x0000000000041d6c                bus_Configuration_1_sigMCU6_Odometer_Countdown_Start_Value_MDL_Signal
                0x0000000000041d70                bus_Configuration_1_sigStateOfCharge_Value_TA_Replacevalue
                0x0000000000041d71                bus_Configuration_1_sigStateOfCharge_Value_TA_Switchvalue
                0x0000000000041d72                bus_Configuration_1_sigStateOfCharge_Value_IO_Signal
                0x0000000000041d73                bus_Configuration_1_sigStateOfCharge_Value_MDL_Signal
                0x0000000000041d74                bus_Configuration_1_sigKeyOnIndicator_Value_TA_Replacevalue
                0x0000000000041d75                bus_Configuration_1_sigKeyOnIndicator_Value_TA_Switchvalue
                0x0000000000041d76                bus_Configuration_1_sigKeyOnIndicator_Value_IO_Signal
                0x0000000000041d77                bus_Configuration_1_sigKeyOnIndicator_Value_MDL_Signal
                0x0000000000041d78                bus_Configuration_1_sigBatteryMalfunctionLight_Value_TA_Replacevalue
                0x0000000000041d79                bus_Configuration_1_sigBatteryMalfunctionLight_Value_TA_Switchvalue
                0x0000000000041d7a                bus_Configuration_1_sigBatteryMalfunctionLight_Value_IO_Signal
                0x0000000000041d7b                bus_Configuration_1_sigBatteryMalfunctionLight_Value_MDL_Signal
                0x0000000000041d80                bus_Configuration_1_sigBatteryCurrent_Value_TA_Replacevalue
                0x0000000000041d88                bus_Configuration_1_sigBatteryCurrent_Value_TA_Switchvalue
                0x0000000000041d90                bus_Configuration_1_sigBatteryCurrent_Value_IO_Signal
                0x0000000000041d98                bus_Configuration_1_sigBatteryCurrent_Value_MDL_Signal
                0x0000000000041da0                BM_value_16339
                0x0000000000041da8                bus_Configuration_1_sigDriveCurrentLimit_Value_TA_Replacevalue
                0x0000000000041da9                bus_Configuration_1_sigDriveCurrentLimit_Value_TA_Switchvalue
                0x0000000000041daa                bus_Configuration_1_sigDriveCurrentLimit_Value_IO_Signal
                0x0000000000041dab                bus_Configuration_1_sigDriveCurrentLimit_Value_MDL_Signal
                0x0000000000041dac                bus_Configuration_1_sigRegenCurrentLimit_Value_TA_Replacevalue
                0x0000000000041dad                bus_Configuration_1_sigRegenCurrentLimit_Value_TA_Switchvalue
                0x0000000000041dae                bus_Configuration_1_sigRegenCurrentLimit_Value_IO_Signal
                0x0000000000041daf                bus_Configuration_1_sigRegenCurrentLimit_Value_MDL_Signal
                0x0000000000041db0                bus_Configuration_1_sigVehicleModeRequest_Value_TA_Replacevalue
                0x0000000000041db1                bus_Configuration_1_sigVehicleModeRequest_Value_TA_Switchvalue
                0x0000000000041db2                bus_Configuration_1_sigVehicleModeRequest_Value_IO_Signal
                0x0000000000041db3                bus_Configuration_1_sigVehicleModeRequest_Value_MDL_Signal
                0x0000000000041db4                bus_Configuration_1_sigControllerTemperature_Value_TA_Replacevalue
                0x0000000000041db5                bus_Configuration_1_sigControllerTemperature_Value_TA_Switchvalue
                0x0000000000041db6                bus_Configuration_1_sigControllerTemperature_Value_IO_Signal_2
                0x0000000000041db7                bus_Configuration_1_sigControllerTemperature_Value_MDL_Signal
                0x0000000000041db8                bus_Configuration_1_sigMotorTemperature_Value_TA_Replacevalue
                0x0000000000041dba                bus_Configuration_1_sigMotorTemperature_Value_TA_Switchvalue
                0x0000000000041dbc                bus_Configuration_1_sigMotorTemperature_Value_IO_Signal_2
                0x0000000000041dbe                bus_Configuration_1_sigMotorTemperature_Value_MDL_Signal
                0x0000000000041dc0                bus_Configuration_1_sigRMSCurrent_Value_TA_Replacevalue
                0x0000000000041dc8                bus_Configuration_1_sigRMSCurrent_Value_TA_Switchvalue
                0x0000000000041dd0                bus_Configuration_1_sigRMSCurrent_Value_IO_Signal_2
                0x0000000000041dd8                bus_Configuration_1_sigRMSCurrent_Value_MDL_Signal
                0x0000000000041de0                BM_value_16338
                0x0000000000041de8                bus_Configuration_1_sigThrottle_Value_TA_Replacevalue
                0x0000000000041de9                bus_Configuration_1_sigThrottle_Value_TA_Switchvalue
                0x0000000000041dea                bus_Configuration_1_sigThrottle_Value_IO_Signal_2
                0x0000000000041deb                bus_Configuration_1_sigThrottle_Value_MDL_Signal
                0x0000000000041dec                bus_Configuration_1_sigSpeed_Value_TA_Replacevalue
                0x0000000000041ded                bus_Configuration_1_sigSpeed_Value_TA_Switchvalue
                0x0000000000041dee                bus_Configuration_1_sigSpeed_Value_IO_Signal_2
                0x0000000000041def                bus_Configuration_1_sigSpeed_Value_MDL_Signal
                0x0000000000041df0                bus_Configuration_1_sigDriveMode_Value_TA_Replacevalue
                0x0000000000041df1                bus_Configuration_1_sigDriveMode_Value_TA_Switchvalue
                0x0000000000041df2                bus_Configuration_1_sigDriveMode_Value_IO_Signal_2
                0x0000000000041df3                bus_Configuration_1_sigDriveMode_Value_MDL_Signal
                0x0000000000041df4                bus_Configuration_1_sigBrake_Value_TA_Replacevalue
                0x0000000000041df5                bus_Configuration_1_sigBrake_Value_TA_Switchvalue
                0x0000000000041df6                bus_Configuration_1_sigBrake_Value_IO_Signal_2
                0x0000000000041df7                bus_Configuration_1_sigBrake_Value_MDL_Signal
                0x0000000000041df8                bus_Configuration_1_sigMotorRPM_Value_TA_Replacevalue
                0x0000000000041dfa                bus_Configuration_1_sigMotorRPM_Value_TA_Switchvalue
                0x0000000000041dfc                bus_Configuration_1_sigMotorRPM_Value_IO_Signal_1
                0x0000000000041dfe                bus_Configuration_1_sigMotorRPM_Value_MDL_Signal
                0x0000000000041e00                bus_Configuration_1_sigCapacitorVoltage_Value_TA_Replacevalue
                0x0000000000041e08                bus_Configuration_1_sigCapacitorVoltage_Value_TA_Switchvalue
                0x0000000000041e10                bus_Configuration_1_sigCapacitorVoltage_Value_IO_Signal_1
                0x0000000000041e18                bus_Configuration_1_sigCapacitorVoltage_Value_MDL_Signal
                0x0000000000041e20                BM_value_16337
                0x0000000000041e28                bus_Configuration_1_sigOdometer_Value_TA_Replacevalue
                0x0000000000041e30                bus_Configuration_1_sigOdometer_Value_TA_Switchvalue
                0x0000000000041e38                bus_Configuration_1_sigOdometer_Value_IO_Signal_1
                0x0000000000041e40                bus_Configuration_1_sigOdometer_Value_MDL_Signal
                0x0000000000041e48                BM_value_16336
                0x0000000000041e50                bus_Configuration_1_sigControllerCommonFault_Value_TA_Replacevalue
                0x0000000000041e51                bus_Configuration_1_sigControllerCommonFault_Value_TA_Switchvalue
                0x0000000000041e52                bus_Configuration_1_sigControllerCommonFault_Value_IO_Signal_2
                0x0000000000041e53                bus_Configuration_1_sigControllerCommonFault_Value_MDL_Signal
                0x0000000000041e54                bus_Configuration_1_sigControllerOverCurrent_Value_TA_Replacevalue
                0x0000000000041e55                bus_Configuration_1_sigControllerOverCurrent_Value_TA_Switchvalue
                0x0000000000041e56                bus_Configuration_1_sigControllerOverCurrent_Value_IO_Signal_2
                0x0000000000041e57                bus_Configuration_1_sigControllerOverCurrent_Value_MDL_Signal
                0x0000000000041e58                bus_Configuration_1_sigCurrentSensorFault_Value_TA_Replacevalue
                0x0000000000041e59                bus_Configuration_1_sigCurrentSensorFault_Value_TA_Switchvalue
                0x0000000000041e5a                bus_Configuration_1_sigCurrentSensorFault_Value_IO_Signal_2
                0x0000000000041e5b                bus_Configuration_1_sigCurrentSensorFault_Value_MDL_Signal
                0x0000000000041e5c                bus_Configuration_1_sigPrechargeFailed_Value_TA_Replacevalue
                0x0000000000041e5d                bus_Configuration_1_sigPrechargeFailed_Value_TA_Switchvalue
                0x0000000000041e5e                bus_Configuration_1_sigPrechargeFailed_Value_IO_Signal_2
                0x0000000000041e5f                bus_Configuration_1_sigPrechargeFailed_Value_MDL_Signal
                0x0000000000041e60                bus_Configuration_1_sigControllerSevereUndertemp_Value_TA_Replacevalue
                0x0000000000041e61                bus_Configuration_1_sigControllerSevereUndertemp_Value_TA_Switchvalue
                0x0000000000041e62                bus_Configuration_1_sigControllerSevereUndertemp_Value_IO_Signal_2
                0x0000000000041e63                bus_Configuration_1_sigControllerSevereUndertemp_Value_MDL_Signal
                0x0000000000041e64                bus_Configuration_1_sigControllerSevereOvertemp_Value_TA_Replacevalue
                0x0000000000041e65                bus_Configuration_1_sigControllerSevereOvertemp_Value_TA_Switchvalue
                0x0000000000041e66                bus_Configuration_1_sigControllerSevereOvertemp_Value_IO_Signal_2
                0x0000000000041e67                bus_Configuration_1_sigControllerSevereOvertemp_Value_MDL_Signal
                0x0000000000041e68                bus_Configuration_1_sigSevereBPosUndervoltage_Value_TA_Replacevalue
                0x0000000000041e69                bus_Configuration_1_sigSevereBPosUndervoltage_Value_TA_Switchvalue
                0x0000000000041e6a                bus_Configuration_1_sigSevereBPosUndervoltage_Value_IO_Signal_2
                0x0000000000041e6b                bus_Configuration_1_sigSevereBPosUndervoltage_Value_MDL_Signal
                0x0000000000041e6c                bus_Configuration_1_sigSevereKSIUndervoltage_Value_TA_Replacevalue
                0x0000000000041e6d                bus_Configuration_1_sigSevereKSIUndervoltage_Value_TA_Switchvalue
                0x0000000000041e6e                bus_Configuration_1_sigSevereKSIUndervoltage_Value_IO_Signal_2
                0x0000000000041e6f                bus_Configuration_1_sigSevereKSIUndervoltage_Value_MDL_Signal
                0x0000000000041e70                bus_Configuration_1_sigSevereBPosOvervoltage_Value_TA_Replacevalue
                0x0000000000041e71                bus_Configuration_1_sigSevereBPosOvervoltage_Value_TA_Switchvalue
                0x0000000000041e72                bus_Configuration_1_sigSevereBPosOvervoltage_Value_IO_Signal_2
                0x0000000000041e73                bus_Configuration_1_sigSevereBPosOvervoltage_Value_MDL_Signal
                0x0000000000041e74                bus_Configuration_1_sigSevereKSIOvervoltage_Value_TA_Replacevalue
                0x0000000000041e75                bus_Configuration_1_sigSevereKSIOvervoltage_Value_TA_Switchvalue
                0x0000000000041e76                bus_Configuration_1_sigSevereKSIOvervoltage_Value_IO_Signal_2
                0x0000000000041e77                bus_Configuration_1_sigSevereKSIOvervoltage_Value_MDL_Signal
                0x0000000000041e78                bus_Configuration_1_sigControllerOvertempCutback_Value_TA_Replacevalue
                0x0000000000041e79                bus_Configuration_1_sigControllerOvertempCutback_Value_TA_Switchvalue
                0x0000000000041e7a                bus_Configuration_1_sigControllerOvertempCutback_Value_IO_Signal_2
                0x0000000000041e7b                bus_Configuration_1_sigControllerOvertempCutback_Value_MDL_Signal
                0x0000000000041e7c                bus_Configuration_1_sigBPosUndervoltageCutback_Value_TA_Replacevalue
                0x0000000000041e7d                bus_Configuration_1_sigBPosUndervoltageCutback_Value_TA_Switchvalue
                0x0000000000041e7e                bus_Configuration_1_sigBPosUndervoltageCutback_Value_IO_Signal_2
                0x0000000000041e7f                bus_Configuration_1_sigBPosUndervoltageCutback_Value_MDL_Signal
                0x0000000000041e80                bus_Configuration_1_sigBPosOvervoltageCutback_Value_TA_Replacevalue
                0x0000000000041e81                bus_Configuration_1_sigBPosOvervoltageCutback_Value_TA_Switchvalue
                0x0000000000041e82                bus_Configuration_1_sigBPosOvervoltageCutback_Value_IO_Signal_2
                0x0000000000041e83                bus_Configuration_1_sigBPosOvervoltageCutback_Value_MDL_Signal
                0x0000000000041e84                bus_Configuration_1_sig5VSupplyFailure_Value_TA_Replacevalue
                0x0000000000041e85                bus_Configuration_1_sig5VSupplyFailure_Value_TA_Switchvalue
                0x0000000000041e86                bus_Configuration_1_sig5VSupplyFailure_Value_IO_Signal_2
                0x0000000000041e87                bus_Configuration_1_sig5VSupplyFailure_Value_MDL_Signal
                0x0000000000041e88                bus_Configuration_1_sigMotorTempHotCutback_Value_TA_Replacevalue
                0x0000000000041e89                bus_Configuration_1_sigMotorTempHotCutback_Value_TA_Switchvalue
                0x0000000000041e8a                bus_Configuration_1_sigMotorTempHotCutback_Value_IO_Signal_2
                0x0000000000041e8b                bus_Configuration_1_sigMotorTempHotCutback_Value_MDL_Signal
                0x0000000000041e8c                bus_Configuration_1_sigMotorTempSensorFault_Value_TA_Replacevalue
                0x0000000000041e8d                bus_Configuration_1_sigMotorTempSensorFault_Value_TA_Switchvalue
                0x0000000000041e8e                bus_Configuration_1_sigMotorTempSensorFault_Value_IO_Signal_2
                0x0000000000041e8f                bus_Configuration_1_sigMotorTempSensorFault_Value_MDL_Signal
                0x0000000000041e90                bus_Configuration_1_sigMainOpenShort_Value_TA_Replacevalue
                0x0000000000041e91                bus_Configuration_1_sigMainOpenShort_Value_TA_Switchvalue
                0x0000000000041e92                bus_Configuration_1_sigMainOpenShort_Value_IO_Signal_2
                0x0000000000041e93                bus_Configuration_1_sigMainOpenShort_Value_MDL_Signal
                0x0000000000041e94                bus_Configuration_1_sigSinCosSensorFault_Value_TA_Replacevalue
                0x0000000000041e95                bus_Configuration_1_sigSinCosSensorFault_Value_TA_Switchvalue
                0x0000000000041e96                bus_Configuration_1_sigSinCosSensorFault_Value_IO_Signal_2
                0x0000000000041e97                bus_Configuration_1_sigSinCosSensorFault_Value_MDL_Signal
                0x0000000000041e98                bus_Configuration_1_sigMotorPhaseOpen_Value_TA_Replacevalue
                0x0000000000041e99                bus_Configuration_1_sigMotorPhaseOpen_Value_TA_Switchvalue
                0x0000000000041e9a                bus_Configuration_1_sigMotorPhaseOpen_Value_IO_Signal_2
                0x0000000000041e9b                bus_Configuration_1_sigMotorPhaseOpen_Value_MDL_Signal
                0x0000000000041e9c                bus_Configuration_1_sigMainContactorWelded_Value_TA_Replacevalue
                0x0000000000041e9d                bus_Configuration_1_sigMainContactorWelded_Value_TA_Switchvalue
                0x0000000000041e9e                bus_Configuration_1_sigMainContactorWelded_Value_IO_Signal_2
                0x0000000000041e9f                bus_Configuration_1_sigMainContactorWelded_Value_MDL_Signal
                0x0000000000041ea0                bus_Configuration_1_sigMainContactordidnotClose_Value_TA_Replacevalue
                0x0000000000041ea1                bus_Configuration_1_sigMainContactordidnotClose_Value_TA_Switchvalue
                0x0000000000041ea2                bus_Configuration_1_sigMainContactordidnotClose_Value_IO_Signal_2
                0x0000000000041ea3                bus_Configuration_1_sigMainContactordidnotClose_Value_MDL_Signal
                0x0000000000041ea4                bus_Configuration_1_sigThrottlewiperHigh_Value_TA_Replacevalue
                0x0000000000041ea5                bus_Configuration_1_sigThrottlewiperHigh_Value_TA_Switchvalue
                0x0000000000041ea6                bus_Configuration_1_sigThrottlewiperHigh_Value_IO_Signal_2
                0x0000000000041ea7                bus_Configuration_1_sigThrottlewiperHigh_Value_MDL_Signal
                0x0000000000041ea8                bus_Configuration_1_sigThrottlewiperLow_Value_TA_Replacevalue
                0x0000000000041ea9                bus_Configuration_1_sigThrottlewiperLow_Value_TA_Switchvalue
                0x0000000000041eaa                bus_Configuration_1_sigThrottlewiperLow_Value_IO_Signal_2
                0x0000000000041eab                bus_Configuration_1_sigThrottlewiperLow_Value_MDL_Signal
                0x0000000000041eac                bus_Configuration_1_sigEEPROMFailure_Value_TA_Replacevalue
                0x0000000000041ead                bus_Configuration_1_sigEEPROMFailure_Value_TA_Switchvalue
                0x0000000000041eae                bus_Configuration_1_sigEEPROMFailure_Value_IO_Signal_2
                0x0000000000041eaf                bus_Configuration_1_sigEEPROMFailure_Value_MDL_Signal
                0x0000000000041eb0                bus_Configuration_1_sigVCLRunTimeError_Value_TA_Replacevalue
                0x0000000000041eb1                bus_Configuration_1_sigVCLRunTimeError_Value_TA_Switchvalue
                0x0000000000041eb2                bus_Configuration_1_sigVCLRunTimeError_Value_IO_Signal_2
                0x0000000000041eb3                bus_Configuration_1_sigVCLRunTimeError_Value_MDL_Signal
                0x0000000000041eb4                bus_Configuration_1_sigMotorCharacterization_Value_TA_Replacevalue
                0x0000000000041eb5                bus_Configuration_1_sigMotorCharacterization_Value_TA_Switchvalue
                0x0000000000041eb6                bus_Configuration_1_sigMotorCharacterization_Value_IO_Signal_2
                0x0000000000041eb7                bus_Configuration_1_sigMotorCharacterization_Value_MDL_Signal
                0x0000000000041eb8                bus_Configuration_1_sigParameterChangeFault_Value_TA_Replacevalue
                0x0000000000041eb9                bus_Configuration_1_sigParameterChangeFault_Value_TA_Switchvalue
                0x0000000000041eba                bus_Configuration_1_sigParameterChangeFault_Value_IO_Signal_2
                0x0000000000041ebb                bus_Configuration_1_sigParameterChangeFault_Value_MDL_Signal
                0x0000000000041ebc                bus_Configuration_1_sigStallDetected_Value_TA_Replacevalue
                0x0000000000041ebd                bus_Configuration_1_sigStallDetected_Value_TA_Switchvalue
                0x0000000000041ebe                bus_Configuration_1_sigStallDetected_Value_IO_Signal_2
                0x0000000000041ebf                bus_Configuration_1_sigStallDetected_Value_MDL_Signal
                0x0000000000041ec0                bus_Configuration_1_sigBrakeWiperHigh_Value_TA_Replacevalue
                0x0000000000041ec1                bus_Configuration_1_sigBrakeWiperHigh_Value_TA_Switchvalue
                0x0000000000041ec2                bus_Configuration_1_sigBrakeWiperHigh_Value_IO_Signal_2
                0x0000000000041ec3                bus_Configuration_1_sigBrakeWiperHigh_Value_MDL_Signal
                0x0000000000041ec4                bus_Configuration_1_sigBrakeWiperLow_Value_TA_Replacevalue
                0x0000000000041ec5                bus_Configuration_1_sigBrakeWiperLow_Value_TA_Switchvalue
                0x0000000000041ec6                bus_Configuration_1_sigBrakeWiperLow_Value_IO_Signal_2
                0x0000000000041ec7                bus_Configuration_1_sigBrakeWiperLow_Value_MDL_Signal
                0x0000000000041ec8                bus_Configuration_1_sigHighPedalDisable_Value_TA_Replacevalue
                0x0000000000041ec9                bus_Configuration_1_sigHighPedalDisable_Value_TA_Switchvalue
                0x0000000000041eca                bus_Configuration_1_sigHighPedalDisable_Value_IO_Signal_2
                0x0000000000041ecb                bus_Configuration_1_sigHighPedalDisable_Value_MDL_Signal
                0x0000000000041ecc                bus_Configuration_1_sigCoil4DriverOpenShort_Value_TA_Replacevalue
                0x0000000000041ecd                bus_Configuration_1_sigCoil4DriverOpenShort_Value_TA_Switchvalue
                0x0000000000041ece                bus_Configuration_1_sigCoil4DriverOpenShort_Value_IO_Signal_2
                0x0000000000041ecf                bus_Configuration_1_sigCoil4DriverOpenShort_Value_MDL_Signal
                0x0000000000041ed0                bus_Configuration_1_sigCoil3DriverOpenShort_Value_TA_Replacevalue
                0x0000000000041ed1                bus_Configuration_1_sigCoil3DriverOpenShort_Value_TA_Switchvalue
                0x0000000000041ed2                bus_Configuration_1_sigCoil3DriverOpenShort_Value_IO_Signal_2
                0x0000000000041ed3                bus_Configuration_1_sigCoil3DriverOpenShort_Value_MDL_Signal
                0x0000000000041ed4                bus_Configuration_1_sigSupervisorFault_Value_TA_Replacevalue
                0x0000000000041ed5                bus_Configuration_1_sigSupervisorFault_Value_TA_Switchvalue
                0x0000000000041ed6                bus_Configuration_1_sigSupervisorFault_Value_IO_Signal_2
                0x0000000000041ed7                bus_Configuration_1_sigSupervisorFault_Value_MDL_Signal
                0x0000000000041ed8                bus_Configuration_1_sigBadCalibration_Value_TA_Replacevalue
                0x0000000000041ed9                bus_Configuration_1_sigBadCalibration_Value_TA_Switchvalue
                0x0000000000041eda                bus_Configuration_1_sigBadCalibration_Value_IO_Signal_2
                0x0000000000041edb                bus_Configuration_1_sigBadCalibration_Value_MDL_Signal
                0x0000000000041edc                bus_Configuration_1_sigPMACCommissioningNeeded_Value_TA_Replacevalue
                0x0000000000041edd                bus_Configuration_1_sigPMACCommissioningNeeded_Value_TA_Switchvalue
                0x0000000000041ede                bus_Configuration_1_sigPMACCommissioningNeeded_Value_IO_Signal_2
                0x0000000000041edf                bus_Configuration_1_sigPMACCommissioningNeeded_Value_MDL_Signal
                0x0000000000041ee0                bus_Configuration_1_sigSinCosMisalignment_Value_TA_Replacevalue
                0x0000000000041ee1                bus_Configuration_1_sigSinCosMisalignment_Value_TA_Switchvalue
                0x0000000000041ee2                bus_Configuration_1_sigSinCosMisalignment_Value_IO_Signal_2
                0x0000000000041ee3                bus_Configuration_1_sigSinCosMisalignment_Value_MDL_Signal
                0x0000000000041ee4                bus_Configuration_1_sigPhasePWMMismatch_Value_TA_Replacevalue
                0x0000000000041ee5                bus_Configuration_1_sigPhasePWMMismatch_Value_TA_Switchvalue
                0x0000000000041ee6                bus_Configuration_1_sigPhasePWMMismatch_Value_IO_Signal_2
                0x0000000000041ee7                bus_Configuration_1_sigPhasePWMMismatch_Value_MDL_Signal
                0x0000000000041ee8                bus_Configuration_1_sigInsulationResistanceLow_Value_TA_Replacevalue
                0x0000000000041ee9                bus_Configuration_1_sigInsulationResistanceLow_Value_TA_Switchvalue
                0x0000000000041eea                bus_Configuration_1_sigInsulationResistanceLow_Value_IO_Signal_2
                0x0000000000041eeb                bus_Configuration_1_sigInsulationResistanceLow_Value_MDL_Signal
                0x0000000000041eec                bus_Configuration_1_sigOSGeneral_Value_TA_Replacevalue
                0x0000000000041eed                bus_Configuration_1_sigOSGeneral_Value_TA_Switchvalue
                0x0000000000041eee                bus_Configuration_1_sigOSGeneral_Value_IO_Signal_2
                0x0000000000041eef                bus_Configuration_1_sigOSGeneral_Value_MDL_Signal
                0x0000000000041ef0                bus_Configuration_1_sigOEM_NoBatteryCAN_Value_TA_Replacevalue
                0x0000000000041ef1                bus_Configuration_1_sigOEM_NoBatteryCAN_Value_TA_Switchvalue
                0x0000000000041ef2                bus_Configuration_1_sigOEM_NoBatteryCAN_Value_IO_Signal_2
                0x0000000000041ef3                bus_Configuration_1_sigOEM_NoBatteryCAN_Value_MDL_Signal
                0x0000000000041ef4                bus_Configuration_1_sigOEM_BatterySTOPSignal_Value_TA_Replacevalue
                0x0000000000041ef5                bus_Configuration_1_sigOEM_BatterySTOPSignal_Value_TA_Switchvalue
                0x0000000000041ef6                bus_Configuration_1_sigOEM_BatterySTOPSignal_Value_IO_Signal_2
                0x0000000000041ef7                bus_Configuration_1_sigOEM_BatterySTOPSignal_Value_MDL_Signal
                0x0000000000041ef8                bus_Configuration_1_sigCoil2DriverOpenShort_Value_TA_Replacevalue
                0x0000000000041ef9                bus_Configuration_1_sigCoil2DriverOpenShort_Value_TA_Switchvalue
                0x0000000000041efa                bus_Configuration_1_sigCoil2DriverOpenShort_Value_IO_Signal_2
                0x0000000000041efb                bus_Configuration_1_sigCoil2DriverOpenShort_Value_MDL_Signal
                0x0000000000041efc                bus_Configuration_1_Controller_CompleteFaults_Value_TA_Replacevalue
                0x0000000000041efd                bus_Configuration_1_Controller_CompleteFaults_Value_TA_Switchvalue
                0x0000000000041efe                bus_Configuration_1_Controller_CompleteFaults_Value_IO_Signal_2
                0x0000000000041eff                bus_Configuration_1_Controller_CompleteFaults_Value_MDL_Signal
                0x0000000000041f00                bus_Configuration_1_sigMCU5_DriveMode_Value_TA_Replacevalue
                0x0000000000041f01                bus_Configuration_1_sigMCU5_DriveMode_Value_TA_Switchvalue
                0x0000000000041f02                bus_Configuration_1_sigMCU5_DriveMode_Value_IO_Signal_3
                0x0000000000041f03                bus_Configuration_1_sigMCU5_DriveMode_Value_MDL_Signal
                0x0000000000041f04                bus_Configuration_1_sigMCU5_RegenFlag_Value_TA_Replacevalue
                0x0000000000041f05                bus_Configuration_1_sigMCU5_RegenFlag_Value_TA_Switchvalue
                0x0000000000041f06                bus_Configuration_1_sigMCU5_RegenFlag_Value_IO_Signal_3
                0x0000000000041f07                bus_Configuration_1_sigMCU5_RegenFlag_Value_MDL_Signal
                0x0000000000041f08                bus_Configuration_1_sigMCU5_Speed_Value_TA_Replacevalue
                0x0000000000041f09                bus_Configuration_1_sigMCU5_Speed_Value_TA_Switchvalue
                0x0000000000041f0a                bus_Configuration_1_sigMCU5_Speed_Value_IO_Signal_3
                0x0000000000041f0b                bus_Configuration_1_sigMCU5_Speed_Value_MDL_Signal
                0x0000000000041f0c                bus_Configuration_1_sigMCU5_Hillhold_Value_TA_Replacevalue
                0x0000000000041f0d                bus_Configuration_1_sigMCU5_Hillhold_Value_TA_Switchvalue
                0x0000000000041f0e                bus_Configuration_1_sigMCU5_Hillhold_Value_IO_Signal_3
                0x0000000000041f0f                bus_Configuration_1_sigMCU5_Hillhold_Value_MDL_Signal
                0x0000000000041f10                bus_Configuration_1_sigMCU5_Efficiency_Value_TA_Replacevalue
                0x0000000000041f11                bus_Configuration_1_sigMCU5_Efficiency_Value_TA_Switchvalue
                0x0000000000041f12                bus_Configuration_1_sigMCU5_Efficiency_Value_IO_Signal_3
                0x0000000000041f13                bus_Configuration_1_sigMCU5_Efficiency_Value_MDL_Signal
                0x0000000000041f18                bus_Configuration_1_sigMCU6_Odometer_Value_TA_Replacevalue
                0x0000000000041f20                bus_Configuration_1_sigMCU6_Odometer_Value_TA_Switchvalue
                0x0000000000041f28                bus_Configuration_1_sigMCU6_Odometer_Value_IO_Signal_2
                0x0000000000041f30                bus_Configuration_1_sigMCU6_Odometer_Value_MDL_Signal
                0x0000000000041f38                BM_value_16335
                0x0000000000041f40                bus_Configuration_1_CCU_heartBeat_Value_TA_Replacevalue
                0x0000000000041f41                bus_Configuration_1_CCU_heartBeat_Value_TA_Switchvalue
                0x0000000000041f42                bus_Configuration_1_CCU_heartBeat_Value_IO_Signal
                0x0000000000041f43                bus_Configuration_1_CCU_heartBeat_Value_MDL_Signal
                0x0000000000041f44                bus_Configuration_1_steeringPower_Value_TA_Replacevalue
                0x0000000000041f45                bus_Configuration_1_steeringPower_Value_TA_Switchvalue
                0x0000000000041f46                bus_Configuration_1_steeringPower_Value_IO_Signal
                0x0000000000041f47                bus_Configuration_1_steeringPower_Value_MDL_Signal
                0x0000000000041f48                bus_Configuration_1_notUsed_Value_TA_Replacevalue
                0x0000000000041f49                bus_Configuration_1_notUsed_Value_TA_Switchvalue
                0x0000000000041f4a                bus_Configuration_1_notUsed_Value_IO_Signal
                0x0000000000041f4b                bus_Configuration_1_notUsed_Value_MDL_Signal
                0x0000000000041f4c                bus_Configuration_1_setDirection_Value_TA_Replacevalue
                0x0000000000041f4d                bus_Configuration_1_setDirection_Value_TA_Switchvalue
                0x0000000000041f4e                bus_Configuration_1_setDirection_Value_IO_Signal
                0x0000000000041f4f                bus_Configuration_1_setDirection_Value_MDL_Signal
                0x0000000000041f50                bus_Configuration_1_setAutoParkBreak_Value_TA_Replacevalue
                0x0000000000041f51                bus_Configuration_1_setAutoParkBreak_Value_TA_Switchvalue
                0x0000000000041f52                bus_Configuration_1_setAutoParkBreak_Value_IO_Signal
                0x0000000000041f53                bus_Configuration_1_setAutoParkBreak_Value_MDL_Signal
                0x0000000000041f54                bus_Configuration_1_setBreake_Value_TA_Replacevalue
                0x0000000000041f55                bus_Configuration_1_setBreake_Value_TA_Switchvalue
                0x0000000000041f56                bus_Configuration_1_setBreake_Value_IO_Signal
                0x0000000000041f57                bus_Configuration_1_setBreake_Value_MDL_Signal
                0x0000000000041f58                bus_Configuration_1_setVelocity_Value_TA_Replacevalue
                0x0000000000041f59                bus_Configuration_1_setVelocity_Value_TA_Switchvalue
                0x0000000000041f5a                bus_Configuration_1_setVelocity_Value_IO_Signal
                0x0000000000041f5b                bus_Configuration_1_setVelocity_Value_MDL_Signal
                0x0000000000041f5c                bus_Configuration_1_setDriveMode_Value_TA_Replacevalue
                0x0000000000041f5d                bus_Configuration_1_setDriveMode_Value_TA_Switchvalue
                0x0000000000041f5e                bus_Configuration_1_setDriveMode_Value_IO_Signal
                0x0000000000041f5f                bus_Configuration_1_setDriveMode_Value_MDL_Signal
                0x0000000000041f60                bus_Configuration_1_sigMCU5_DriveMode_Selected_Feature_MDL_SignalRef
                0x0000000000041f68                bus_Configuration_1_sigMCU5_DriveMode_Selected_Feature_IO_Signal
                0x0000000000041f70                bus_Configuration_1_sigMCU5_DriveMode_Current_Countdown_Value_MDL_SignalRef
                0x0000000000041f78                bus_Configuration_1_sigMCU5_DriveMode_Current_Countdown_Value_IO_Signal
                0x0000000000041f80                bus_Configuration_1_sigMCU5_RegenFlag_Selected_Feature_MDL_SignalRef
                0x0000000000041f88                bus_Configuration_1_sigMCU5_RegenFlag_Selected_Feature_IO_Signal
                0x0000000000041f90                bus_Configuration_1_sigMCU5_RegenFlag_Current_Countdown_Value_MDL_SignalRef
                0x0000000000041f98                bus_Configuration_1_sigMCU5_RegenFlag_Current_Countdown_Value_IO_Signal
                0x0000000000041fa0                bus_Configuration_1_sigMCU5_Speed_Selected_Feature_MDL_SignalRef
                0x0000000000041fa8                bus_Configuration_1_sigMCU5_Speed_Selected_Feature_IO_Signal
                0x0000000000041fb0                bus_Configuration_1_sigMCU5_Speed_Current_Countdown_Value_MDL_SignalRef
                0x0000000000041fb8                bus_Configuration_1_sigMCU5_Speed_Current_Countdown_Value_IO_Signal
                0x0000000000041fc0                bus_Configuration_1_sigMCU5_Hillhold_Selected_Feature_MDL_SignalRef
                0x0000000000041fc8                bus_Configuration_1_sigMCU5_Hillhold_Selected_Feature_IO_Signal
                0x0000000000041fd0                bus_Configuration_1_sigMCU5_Hillhold_Current_Countdown_Value_MDL_SignalRef
                0x0000000000041fd8                bus_Configuration_1_sigMCU5_Hillhold_Current_Countdown_Value_IO_Signal
                0x0000000000041fe0                bus_Configuration_1_sigMCU5_Efficiency_Selected_Feature_MDL_SignalRef
                0x0000000000041fe8                bus_Configuration_1_sigMCU5_Efficiency_Selected_Feature_IO_Signal
                0x0000000000041ff0                bus_Configuration_1_sigMCU5_Efficiency_Current_Countdown_Value_MDL_SignalRef
                0x0000000000041ff8                bus_Configuration_1_sigMCU5_Efficiency_Current_Countdown_Value_IO_Signal
                0x0000000000042000                bus_Configuration_1_sigBatteryCurrent_Selected_Feature_MDL_SignalRef
                0x0000000000042008                bus_Configuration_1_sigBatteryCurrent_Selected_Feature_IO_Signal
                0x0000000000042010                bus_Configuration_1_sigBatteryCurrent_Current_Countdown_Value_MDL_SignalRef
                0x0000000000042018                bus_Configuration_1_sigBatteryCurrent_Current_Countdown_Value_IO_Signal
                0x0000000000042020                bus_Configuration_1_sigDriveCurrentLimit_Selected_Feature_MDL_SignalRef
                0x0000000000042028                bus_Configuration_1_sigDriveCurrentLimit_Selected_Feature_IO_Signal
                0x0000000000042030                bus_Configuration_1_sigDriveCurrentLimit_Current_Countdown_Value_MDL_SignalRef
                0x0000000000042038                bus_Configuration_1_sigDriveCurrentLimit_Current_Countdown_Value_IO_Signal
                0x0000000000042040                bus_Configuration_1_sigRegenCurrentLimit_Selected_Feature_MDL_SignalRef
                0x0000000000042048                bus_Configuration_1_sigRegenCurrentLimit_Selected_Feature_IO_Signal
                0x0000000000042050                bus_Configuration_1_sigRegenCurrentLimit_Current_Countdown_Value_MDL_SignalRef
                0x0000000000042058                bus_Configuration_1_sigRegenCurrentLimit_Current_Countdown_Value_IO_Signal
                0x0000000000042060                bus_Configuration_1_sigVehicleModeRequest_Selected_Feature_MDL_SignalRef
                0x0000000000042068                bus_Configuration_1_sigVehicleModeRequest_Selected_Feature_IO_Signal
                0x0000000000042070                bus_Configuration_1_sigVehicleModeRequest_Current_Countdown_Value_MDL_SignalRef
                0x0000000000042078                bus_Configuration_1_sigVehicleModeRequest_Current_Countdown_Value_IO_Signal
                0x0000000000042080                bus_Configuration_1_CCU_heartBeat_Selected_Feature_MDL_SignalRef
                0x0000000000042088                bus_Configuration_1_CCU_heartBeat_Selected_Feature_IO_Signal
                0x0000000000042090                bus_Configuration_1_CCU_heartBeat_Current_Countdown_Value_MDL_SignalRef
                0x0000000000042098                bus_Configuration_1_CCU_heartBeat_Current_Countdown_Value_IO_Signal
                0x00000000000420a0                bus_Configuration_1_steeringPower_Selected_Feature_MDL_SignalRef
                0x00000000000420a8                bus_Configuration_1_steeringPower_Selected_Feature_IO_Signal
                0x00000000000420b0                bus_Configuration_1_steeringPower_Current_Countdown_Value_MDL_SignalRef
                0x00000000000420b8                bus_Configuration_1_steeringPower_Current_Countdown_Value_IO_Signal
                0x00000000000420c0                bus_Configuration_1_notUsed_Selected_Feature_MDL_SignalRef
                0x00000000000420c8                bus_Configuration_1_notUsed_Selected_Feature_IO_Signal
                0x00000000000420d0                bus_Configuration_1_notUsed_Current_Countdown_Value_MDL_SignalRef
                0x00000000000420d8                bus_Configuration_1_notUsed_Current_Countdown_Value_IO_Signal
                0x00000000000420e0                bus_Configuration_1_setDirection_Selected_Feature_MDL_SignalRef
                0x00000000000420e8                bus_Configuration_1_setDirection_Selected_Feature_IO_Signal
                0x00000000000420f0                bus_Configuration_1_setDirection_Current_Countdown_Value_MDL_SignalRef
                0x00000000000420f8                bus_Configuration_1_setDirection_Current_Countdown_Value_IO_Signal
                0x0000000000042100                bus_Configuration_1_setAutoParkBreak_Selected_Feature_MDL_SignalRef
                0x0000000000042108                bus_Configuration_1_setAutoParkBreak_Selected_Feature_IO_Signal
                0x0000000000042110                bus_Configuration_1_setAutoParkBreak_Current_Countdown_Value_MDL_SignalRef
                0x0000000000042118                bus_Configuration_1_setAutoParkBreak_Current_Countdown_Value_IO_Signal
                0x0000000000042120                bus_Configuration_1_setBreake_Selected_Feature_MDL_SignalRef
                0x0000000000042128                bus_Configuration_1_setBreake_Selected_Feature_IO_Signal
                0x0000000000042130                bus_Configuration_1_setBreake_Current_Countdown_Value_MDL_SignalRef
                0x0000000000042138                bus_Configuration_1_setBreake_Current_Countdown_Value_IO_Signal
                0x0000000000042140                bus_Configuration_1_setVelocity_Selected_Feature_MDL_SignalRef
                0x0000000000042148                bus_Configuration_1_setVelocity_Selected_Feature_IO_Signal
                0x0000000000042150                bus_Configuration_1_setVelocity_Current_Countdown_Value_MDL_SignalRef
                0x0000000000042158                bus_Configuration_1_setVelocity_Current_Countdown_Value_IO_Signal
                0x0000000000042160                bus_Configuration_1_setDriveMode_Selected_Feature_MDL_SignalRef
                0x0000000000042168                bus_Configuration_1_setDriveMode_Selected_Feature_IO_Signal
                0x0000000000042170                bus_Configuration_1_setDriveMode_Current_Countdown_Value_MDL_SignalRef
                0x0000000000042178                bus_Configuration_1_setDriveMode_Current_Countdown_Value_IO_Signal
                0x0000000000042180                bus_Configuration_1_sigStateOfCharge_Selected_Feature_MDL_SignalRef
                0x0000000000042188                bus_Configuration_1_sigStateOfCharge_Selected_Feature_IO_Signal
                0x0000000000042190                bus_Configuration_1_sigStateOfCharge_Current_Countdown_Value_MDL_SignalRef
                0x0000000000042198                bus_Configuration_1_sigStateOfCharge_Current_Countdown_Value_IO_Signal
                0x00000000000421a0                bus_Configuration_1_sigKeyOnIndicator_Selected_Feature_MDL_SignalRef
                0x00000000000421a8                bus_Configuration_1_sigKeyOnIndicator_Selected_Feature_IO_Signal
                0x00000000000421b0                bus_Configuration_1_sigKeyOnIndicator_Current_Countdown_Value_MDL_SignalRef
                0x00000000000421b8                bus_Configuration_1_sigKeyOnIndicator_Current_Countdown_Value_IO_Signal
                0x00000000000421c0                bus_Configuration_1_sigBatteryMalfunctionLight_Selected_Feature_MDL_SignalRef
                0x00000000000421c8                bus_Configuration_1_sigBatteryMalfunctionLight_Selected_Feature_IO_Signal
                0x00000000000421d0                bus_Configuration_1_sigBatteryMalfunctionLight_Current_Countdown_Value_MDL_SignalRef
                0x00000000000421d8                bus_Configuration_1_sigBatteryMalfunctionLight_Current_Countdown_Value_IO_Signal
                0x00000000000421e0                bus_Configuration_1_sigControllerTemperature_Selected_Feature_MDL_SignalRef
                0x00000000000421e8                bus_Configuration_1_sigControllerTemperature_Selected_Feature_IO_Signal
                0x00000000000421f0                bus_Configuration_1_sigControllerTemperature_Current_Countdown_Value_MDL_SignalRef
                0x00000000000421f8                bus_Configuration_1_sigControllerTemperature_Current_Countdown_Value_IO_Signal
                0x0000000000042200                bus_Configuration_1_sigMotorTemperature_Selected_Feature_MDL_SignalRef
                0x0000000000042208                bus_Configuration_1_sigMotorTemperature_Selected_Feature_IO_Signal
                0x0000000000042210                bus_Configuration_1_sigMotorTemperature_Current_Countdown_Value_MDL_SignalRef
                0x0000000000042218                bus_Configuration_1_sigMotorTemperature_Current_Countdown_Value_IO_Signal
                0x0000000000042220                bus_Configuration_1_sigRMSCurrent_Selected_Feature_MDL_SignalRef
                0x0000000000042228                bus_Configuration_1_sigRMSCurrent_Selected_Feature_IO_Signal
                0x0000000000042230                bus_Configuration_1_sigRMSCurrent_Current_Countdown_Value_MDL_SignalRef
                0x0000000000042238                bus_Configuration_1_sigRMSCurrent_Current_Countdown_Value_IO_Signal
                0x0000000000042240                bus_Configuration_1_sigThrottle_Selected_Feature_MDL_SignalRef
                0x0000000000042248                bus_Configuration_1_sigThrottle_Selected_Feature_IO_Signal
                0x0000000000042250                bus_Configuration_1_sigThrottle_Current_Countdown_Value_MDL_SignalRef
                0x0000000000042258                bus_Configuration_1_sigThrottle_Current_Countdown_Value_IO_Signal
                0x0000000000042260                bus_Configuration_1_sigSpeed_Selected_Feature_MDL_SignalRef
                0x0000000000042268                bus_Configuration_1_sigSpeed_Selected_Feature_IO_Signal
                0x0000000000042270                bus_Configuration_1_sigSpeed_Current_Countdown_Value_MDL_SignalRef
                0x0000000000042278                bus_Configuration_1_sigSpeed_Current_Countdown_Value_IO_Signal
                0x0000000000042280                bus_Configuration_1_sigDriveMode_Selected_Feature_MDL_SignalRef
                0x0000000000042288                bus_Configuration_1_sigDriveMode_Selected_Feature_IO_Signal
                0x0000000000042290                bus_Configuration_1_sigDriveMode_Current_Countdown_Value_MDL_SignalRef
                0x0000000000042298                bus_Configuration_1_sigDriveMode_Current_Countdown_Value_IO_Signal
                0x00000000000422a0                bus_Configuration_1_sigBrake_Selected_Feature_MDL_SignalRef
                0x00000000000422a8                bus_Configuration_1_sigBrake_Selected_Feature_IO_Signal
                0x00000000000422b0                bus_Configuration_1_sigBrake_Current_Countdown_Value_MDL_SignalRef
                0x00000000000422b8                bus_Configuration_1_sigBrake_Current_Countdown_Value_IO_Signal
                0x00000000000422c0                bus_Configuration_1_sigMotorRPM_Selected_Feature_MDL_SignalRef
                0x00000000000422c8                bus_Configuration_1_sigMotorRPM_Selected_Feature_IO_Signal
                0x00000000000422d0                bus_Configuration_1_sigMotorRPM_Current_Countdown_Value_MDL_SignalRef
                0x00000000000422d8                bus_Configuration_1_sigMotorRPM_Current_Countdown_Value_IO_Signal
                0x00000000000422e0                bus_Configuration_1_sigCapacitorVoltage_Selected_Feature_MDL_SignalRef
                0x00000000000422e8                bus_Configuration_1_sigCapacitorVoltage_Selected_Feature_IO_Signal
                0x00000000000422f0                bus_Configuration_1_sigCapacitorVoltage_Current_Countdown_Value_MDL_SignalRef
                0x00000000000422f8                bus_Configuration_1_sigCapacitorVoltage_Current_Countdown_Value_IO_Signal
                0x0000000000042300                bus_Configuration_1_sigOdometer_Selected_Feature_MDL_SignalRef
                0x0000000000042308                bus_Configuration_1_sigOdometer_Selected_Feature_IO_Signal
                0x0000000000042310                bus_Configuration_1_sigOdometer_Current_Countdown_Value_MDL_SignalRef
                0x0000000000042318                bus_Configuration_1_sigOdometer_Current_Countdown_Value_IO_Signal
                0x0000000000042320                bus_Configuration_1_sigControllerCommonFault_Selected_Feature_MDL_SignalRef
                0x0000000000042328                bus_Configuration_1_sigControllerCommonFault_Selected_Feature_IO_Signal
                0x0000000000042330                bus_Configuration_1_sigControllerCommonFault_Current_Countdown_Value_MDL_SignalRef
                0x0000000000042338                bus_Configuration_1_sigControllerCommonFault_Current_Countdown_Value_IO_Signal
                0x0000000000042340                bus_Configuration_1_sigControllerOverCurrent_Selected_Feature_MDL_SignalRef
                0x0000000000042348                bus_Configuration_1_sigControllerOverCurrent_Selected_Feature_IO_Signal
                0x0000000000042350                bus_Configuration_1_sigControllerOverCurrent_Current_Countdown_Value_MDL_SignalRef
                0x0000000000042358                bus_Configuration_1_sigControllerOverCurrent_Current_Countdown_Value_IO_Signal
                0x0000000000042360                bus_Configuration_1_sigCurrentSensorFault_Selected_Feature_MDL_SignalRef
                0x0000000000042368                bus_Configuration_1_sigCurrentSensorFault_Selected_Feature_IO_Signal
                0x0000000000042370                bus_Configuration_1_sigCurrentSensorFault_Current_Countdown_Value_MDL_SignalRef
                0x0000000000042378                bus_Configuration_1_sigCurrentSensorFault_Current_Countdown_Value_IO_Signal
                0x0000000000042380                bus_Configuration_1_sigPrechargeFailed_Selected_Feature_MDL_SignalRef
                0x0000000000042388                bus_Configuration_1_sigPrechargeFailed_Selected_Feature_IO_Signal
                0x0000000000042390                bus_Configuration_1_sigPrechargeFailed_Current_Countdown_Value_MDL_SignalRef
                0x0000000000042398                bus_Configuration_1_sigPrechargeFailed_Current_Countdown_Value_IO_Signal
                0x00000000000423a0                bus_Configuration_1_sigControllerSevereUndertemp_Selected_Feature_MDL_SignalRef
                0x00000000000423a8                bus_Configuration_1_sigControllerSevereUndertemp_Selected_Feature_IO_Signal
                0x00000000000423b0                bus_Configuration_1_sigControllerSevereUndertemp_Current_Countdown_Value_MDL_SignalRef
                0x00000000000423b8                bus_Configuration_1_sigControllerSevereUndertemp_Current_Countdown_Value_IO_Signal
                0x00000000000423c0                bus_Configuration_1_sigControllerSevereOvertemp_Selected_Feature_MDL_SignalRef
                0x00000000000423c8                bus_Configuration_1_sigControllerSevereOvertemp_Selected_Feature_IO_Signal
                0x00000000000423d0                bus_Configuration_1_sigControllerSevereOvertemp_Current_Countdown_Value_MDL_SignalRef
                0x00000000000423d8                bus_Configuration_1_sigControllerSevereOvertemp_Current_Countdown_Value_IO_Signal
                0x00000000000423e0                bus_Configuration_1_sigSevereBPosUndervoltage_Selected_Feature_MDL_SignalRef
                0x00000000000423e8                bus_Configuration_1_sigSevereBPosUndervoltage_Selected_Feature_IO_Signal
                0x00000000000423f0                bus_Configuration_1_sigSevereBPosUndervoltage_Current_Countdown_Value_MDL_SignalRef
                0x00000000000423f8                bus_Configuration_1_sigSevereBPosUndervoltage_Current_Countdown_Value_IO_Signal
                0x0000000000042400                bus_Configuration_1_sigSevereKSIUndervoltage_Selected_Feature_MDL_SignalRef
                0x0000000000042408                bus_Configuration_1_sigSevereKSIUndervoltage_Selected_Feature_IO_Signal
                0x0000000000042410                bus_Configuration_1_sigSevereKSIUndervoltage_Current_Countdown_Value_MDL_SignalRef
                0x0000000000042418                bus_Configuration_1_sigSevereKSIUndervoltage_Current_Countdown_Value_IO_Signal
                0x0000000000042420                bus_Configuration_1_sigSevereBPosOvervoltage_Selected_Feature_MDL_SignalRef
                0x0000000000042428                bus_Configuration_1_sigSevereBPosOvervoltage_Selected_Feature_IO_Signal
                0x0000000000042430                bus_Configuration_1_sigSevereBPosOvervoltage_Current_Countdown_Value_MDL_SignalRef
                0x0000000000042438                bus_Configuration_1_sigSevereBPosOvervoltage_Current_Countdown_Value_IO_Signal
                0x0000000000042440                bus_Configuration_1_sigSevereKSIOvervoltage_Selected_Feature_MDL_SignalRef
                0x0000000000042448                bus_Configuration_1_sigSevereKSIOvervoltage_Selected_Feature_IO_Signal
                0x0000000000042450                bus_Configuration_1_sigSevereKSIOvervoltage_Current_Countdown_Value_MDL_SignalRef
                0x0000000000042458                bus_Configuration_1_sigSevereKSIOvervoltage_Current_Countdown_Value_IO_Signal
                0x0000000000042460                bus_Configuration_1_sigControllerOvertempCutback_Selected_Feature_MDL_SignalRef
                0x0000000000042468                bus_Configuration_1_sigControllerOvertempCutback_Selected_Feature_IO_Signal
                0x0000000000042470                bus_Configuration_1_sigControllerOvertempCutback_Current_Countdown_Value_MDL_SignalRef
                0x0000000000042478                bus_Configuration_1_sigControllerOvertempCutback_Current_Countdown_Value_IO_Signal
                0x0000000000042480                bus_Configuration_1_sigBPosUndervoltageCutback_Selected_Feature_MDL_SignalRef
                0x0000000000042488                bus_Configuration_1_sigBPosUndervoltageCutback_Selected_Feature_IO_Signal
                0x0000000000042490                bus_Configuration_1_sigBPosUndervoltageCutback_Current_Countdown_Value_MDL_SignalRef
                0x0000000000042498                bus_Configuration_1_sigBPosUndervoltageCutback_Current_Countdown_Value_IO_Signal
                0x00000000000424a0                bus_Configuration_1_sigBPosOvervoltageCutback_Selected_Feature_MDL_SignalRef
                0x00000000000424a8                bus_Configuration_1_sigBPosOvervoltageCutback_Selected_Feature_IO_Signal
                0x00000000000424b0                bus_Configuration_1_sigBPosOvervoltageCutback_Current_Countdown_Value_MDL_SignalRef
                0x00000000000424b8                bus_Configuration_1_sigBPosOvervoltageCutback_Current_Countdown_Value_IO_Signal
                0x00000000000424c0                bus_Configuration_1_sig5VSupplyFailure_Selected_Feature_MDL_SignalRef
                0x00000000000424c8                bus_Configuration_1_sig5VSupplyFailure_Selected_Feature_IO_Signal
                0x00000000000424d0                bus_Configuration_1_sig5VSupplyFailure_Current_Countdown_Value_MDL_SignalRef
                0x00000000000424d8                bus_Configuration_1_sig5VSupplyFailure_Current_Countdown_Value_IO_Signal
                0x00000000000424e0                bus_Configuration_1_sigMotorTempHotCutback_Selected_Feature_MDL_SignalRef
                0x00000000000424e8                bus_Configuration_1_sigMotorTempHotCutback_Selected_Feature_IO_Signal
                0x00000000000424f0                bus_Configuration_1_sigMotorTempHotCutback_Current_Countdown_Value_MDL_SignalRef
                0x00000000000424f8                bus_Configuration_1_sigMotorTempHotCutback_Current_Countdown_Value_IO_Signal
                0x0000000000042500                bus_Configuration_1_sigMotorTempSensorFault_Selected_Feature_MDL_SignalRef
                0x0000000000042508                bus_Configuration_1_sigMotorTempSensorFault_Selected_Feature_IO_Signal
                0x0000000000042510                bus_Configuration_1_sigMotorTempSensorFault_Current_Countdown_Value_MDL_SignalRef
                0x0000000000042518                bus_Configuration_1_sigMotorTempSensorFault_Current_Countdown_Value_IO_Signal
                0x0000000000042520                bus_Configuration_1_sigMainOpenShort_Selected_Feature_MDL_SignalRef
                0x0000000000042528                bus_Configuration_1_sigMainOpenShort_Selected_Feature_IO_Signal
                0x0000000000042530                bus_Configuration_1_sigMainOpenShort_Current_Countdown_Value_MDL_SignalRef
                0x0000000000042538                bus_Configuration_1_sigMainOpenShort_Current_Countdown_Value_IO_Signal
                0x0000000000042540                bus_Configuration_1_sigSinCosSensorFault_Selected_Feature_MDL_SignalRef
                0x0000000000042548                bus_Configuration_1_sigSinCosSensorFault_Selected_Feature_IO_Signal
                0x0000000000042550                bus_Configuration_1_sigSinCosSensorFault_Current_Countdown_Value_MDL_SignalRef
                0x0000000000042558                bus_Configuration_1_sigSinCosSensorFault_Current_Countdown_Value_IO_Signal
                0x0000000000042560                bus_Configuration_1_sigMotorPhaseOpen_Selected_Feature_MDL_SignalRef
                0x0000000000042568                bus_Configuration_1_sigMotorPhaseOpen_Selected_Feature_IO_Signal
                0x0000000000042570                bus_Configuration_1_sigMotorPhaseOpen_Current_Countdown_Value_MDL_SignalRef
                0x0000000000042578                bus_Configuration_1_sigMotorPhaseOpen_Current_Countdown_Value_IO_Signal
                0x0000000000042580                bus_Configuration_1_sigMainContactorWelded_Selected_Feature_MDL_SignalRef
                0x0000000000042588                bus_Configuration_1_sigMainContactorWelded_Selected_Feature_IO_Signal
                0x0000000000042590                bus_Configuration_1_sigMainContactorWelded_Current_Countdown_Value_MDL_SignalRef
                0x0000000000042598                bus_Configuration_1_sigMainContactorWelded_Current_Countdown_Value_IO_Signal
                0x00000000000425a0                bus_Configuration_1_sigMainContactordidnotClose_Selected_Feature_MDL_SignalRef
                0x00000000000425a8                bus_Configuration_1_sigMainContactordidnotClose_Selected_Feature_IO_Signal
                0x00000000000425b0                bus_Configuration_1_sigMainContactordidnotClose_Current_Countdown_Value_MDL_SignalRef
                0x00000000000425b8                bus_Configuration_1_sigMainContactordidnotClose_Current_Countdown_Value_IO_Signal
                0x00000000000425c0                bus_Configuration_1_sigThrottlewiperHigh_Selected_Feature_MDL_SignalRef
                0x00000000000425c8                bus_Configuration_1_sigThrottlewiperHigh_Selected_Feature_IO_Signal
                0x00000000000425d0                bus_Configuration_1_sigThrottlewiperHigh_Current_Countdown_Value_MDL_SignalRef
                0x00000000000425d8                bus_Configuration_1_sigThrottlewiperHigh_Current_Countdown_Value_IO_Signal
                0x00000000000425e0                bus_Configuration_1_sigThrottlewiperLow_Selected_Feature_MDL_SignalRef
                0x00000000000425e8                bus_Configuration_1_sigThrottlewiperLow_Selected_Feature_IO_Signal
                0x00000000000425f0                bus_Configuration_1_sigThrottlewiperLow_Current_Countdown_Value_MDL_SignalRef
                0x00000000000425f8                bus_Configuration_1_sigThrottlewiperLow_Current_Countdown_Value_IO_Signal
                0x0000000000042600                bus_Configuration_1_sigEEPROMFailure_Selected_Feature_MDL_SignalRef
                0x0000000000042608                bus_Configuration_1_sigEEPROMFailure_Selected_Feature_IO_Signal
                0x0000000000042610                bus_Configuration_1_sigEEPROMFailure_Current_Countdown_Value_MDL_SignalRef
                0x0000000000042618                bus_Configuration_1_sigEEPROMFailure_Current_Countdown_Value_IO_Signal
                0x0000000000042620                bus_Configuration_1_sigVCLRunTimeError_Selected_Feature_MDL_SignalRef
                0x0000000000042628                bus_Configuration_1_sigVCLRunTimeError_Selected_Feature_IO_Signal
                0x0000000000042630                bus_Configuration_1_sigVCLRunTimeError_Current_Countdown_Value_MDL_SignalRef
                0x0000000000042638                bus_Configuration_1_sigVCLRunTimeError_Current_Countdown_Value_IO_Signal
                0x0000000000042640                bus_Configuration_1_sigMotorCharacterization_Selected_Feature_MDL_SignalRef
                0x0000000000042648                bus_Configuration_1_sigMotorCharacterization_Selected_Feature_IO_Signal
                0x0000000000042650                bus_Configuration_1_sigMotorCharacterization_Current_Countdown_Value_MDL_SignalRef
                0x0000000000042658                bus_Configuration_1_sigMotorCharacterization_Current_Countdown_Value_IO_Signal
                0x0000000000042660                bus_Configuration_1_sigParameterChangeFault_Selected_Feature_MDL_SignalRef
                0x0000000000042668                bus_Configuration_1_sigParameterChangeFault_Selected_Feature_IO_Signal
                0x0000000000042670                bus_Configuration_1_sigParameterChangeFault_Current_Countdown_Value_MDL_SignalRef
                0x0000000000042678                bus_Configuration_1_sigParameterChangeFault_Current_Countdown_Value_IO_Signal
                0x0000000000042680                bus_Configuration_1_sigStallDetected_Selected_Feature_MDL_SignalRef
                0x0000000000042688                bus_Configuration_1_sigStallDetected_Selected_Feature_IO_Signal
                0x0000000000042690                bus_Configuration_1_sigStallDetected_Current_Countdown_Value_MDL_SignalRef
                0x0000000000042698                bus_Configuration_1_sigStallDetected_Current_Countdown_Value_IO_Signal
                0x00000000000426a0                bus_Configuration_1_sigBrakeWiperHigh_Selected_Feature_MDL_SignalRef
                0x00000000000426a8                bus_Configuration_1_sigBrakeWiperHigh_Selected_Feature_IO_Signal
                0x00000000000426b0                bus_Configuration_1_sigBrakeWiperHigh_Current_Countdown_Value_MDL_SignalRef
                0x00000000000426b8                bus_Configuration_1_sigBrakeWiperHigh_Current_Countdown_Value_IO_Signal
                0x00000000000426c0                bus_Configuration_1_sigBrakeWiperLow_Selected_Feature_MDL_SignalRef
                0x00000000000426c8                bus_Configuration_1_sigBrakeWiperLow_Selected_Feature_IO_Signal
                0x00000000000426d0                bus_Configuration_1_sigBrakeWiperLow_Current_Countdown_Value_MDL_SignalRef
                0x00000000000426d8                bus_Configuration_1_sigBrakeWiperLow_Current_Countdown_Value_IO_Signal
                0x00000000000426e0                bus_Configuration_1_sigHighPedalDisable_Selected_Feature_MDL_SignalRef
                0x00000000000426e8                bus_Configuration_1_sigHighPedalDisable_Selected_Feature_IO_Signal
                0x00000000000426f0                bus_Configuration_1_sigHighPedalDisable_Current_Countdown_Value_MDL_SignalRef
                0x00000000000426f8                bus_Configuration_1_sigHighPedalDisable_Current_Countdown_Value_IO_Signal
                0x0000000000042700                bus_Configuration_1_sigCoil4DriverOpenShort_Selected_Feature_MDL_SignalRef
                0x0000000000042708                bus_Configuration_1_sigCoil4DriverOpenShort_Selected_Feature_IO_Signal
                0x0000000000042710                bus_Configuration_1_sigCoil4DriverOpenShort_Current_Countdown_Value_MDL_SignalRef
                0x0000000000042718                bus_Configuration_1_sigCoil4DriverOpenShort_Current_Countdown_Value_IO_Signal
                0x0000000000042720                bus_Configuration_1_sigCoil3DriverOpenShort_Selected_Feature_MDL_SignalRef
                0x0000000000042728                bus_Configuration_1_sigCoil3DriverOpenShort_Selected_Feature_IO_Signal
                0x0000000000042730                bus_Configuration_1_sigCoil3DriverOpenShort_Current_Countdown_Value_MDL_SignalRef
                0x0000000000042738                bus_Configuration_1_sigCoil3DriverOpenShort_Current_Countdown_Value_IO_Signal
                0x0000000000042740                bus_Configuration_1_sigSupervisorFault_Selected_Feature_MDL_SignalRef
                0x0000000000042748                bus_Configuration_1_sigSupervisorFault_Selected_Feature_IO_Signal
                0x0000000000042750                bus_Configuration_1_sigSupervisorFault_Current_Countdown_Value_MDL_SignalRef
                0x0000000000042758                bus_Configuration_1_sigSupervisorFault_Current_Countdown_Value_IO_Signal
                0x0000000000042760                bus_Configuration_1_sigBadCalibration_Selected_Feature_MDL_SignalRef
                0x0000000000042768                bus_Configuration_1_sigBadCalibration_Selected_Feature_IO_Signal
                0x0000000000042770                bus_Configuration_1_sigBadCalibration_Current_Countdown_Value_MDL_SignalRef
                0x0000000000042778                bus_Configuration_1_sigBadCalibration_Current_Countdown_Value_IO_Signal
                0x0000000000042780                bus_Configuration_1_sigPMACCommissioningNeeded_Selected_Feature_MDL_SignalRef
                0x0000000000042788                bus_Configuration_1_sigPMACCommissioningNeeded_Selected_Feature_IO_Signal
                0x0000000000042790                bus_Configuration_1_sigPMACCommissioningNeeded_Current_Countdown_Value_MDL_SignalRef
                0x0000000000042798                bus_Configuration_1_sigPMACCommissioningNeeded_Current_Countdown_Value_IO_Signal
                0x00000000000427a0                bus_Configuration_1_sigSinCosMisalignment_Selected_Feature_MDL_SignalRef
                0x00000000000427a8                bus_Configuration_1_sigSinCosMisalignment_Selected_Feature_IO_Signal
                0x00000000000427b0                bus_Configuration_1_sigSinCosMisalignment_Current_Countdown_Value_MDL_SignalRef
                0x00000000000427b8                bus_Configuration_1_sigSinCosMisalignment_Current_Countdown_Value_IO_Signal
                0x00000000000427c0                bus_Configuration_1_sigPhasePWMMismatch_Selected_Feature_MDL_SignalRef
                0x00000000000427c8                bus_Configuration_1_sigPhasePWMMismatch_Selected_Feature_IO_Signal
                0x00000000000427d0                bus_Configuration_1_sigPhasePWMMismatch_Current_Countdown_Value_MDL_SignalRef
                0x00000000000427d8                bus_Configuration_1_sigPhasePWMMismatch_Current_Countdown_Value_IO_Signal
                0x00000000000427e0                bus_Configuration_1_sigInsulationResistanceLow_Selected_Feature_MDL_SignalRef
                0x00000000000427e8                bus_Configuration_1_sigInsulationResistanceLow_Selected_Feature_IO_Signal
                0x00000000000427f0                bus_Configuration_1_sigInsulationResistanceLow_Current_Countdown_Value_MDL_SignalRef
                0x00000000000427f8                bus_Configuration_1_sigInsulationResistanceLow_Current_Countdown_Value_IO_Signal
                0x0000000000042800                bus_Configuration_1_sigOSGeneral_Selected_Feature_MDL_SignalRef
                0x0000000000042808                bus_Configuration_1_sigOSGeneral_Selected_Feature_IO_Signal
                0x0000000000042810                bus_Configuration_1_sigOSGeneral_Current_Countdown_Value_MDL_SignalRef
                0x0000000000042818                bus_Configuration_1_sigOSGeneral_Current_Countdown_Value_IO_Signal
                0x0000000000042820                bus_Configuration_1_sigOEM_NoBatteryCAN_Selected_Feature_MDL_SignalRef
                0x0000000000042828                bus_Configuration_1_sigOEM_NoBatteryCAN_Selected_Feature_IO_Signal
                0x0000000000042830                bus_Configuration_1_sigOEM_NoBatteryCAN_Current_Countdown_Value_MDL_SignalRef
                0x0000000000042838                bus_Configuration_1_sigOEM_NoBatteryCAN_Current_Countdown_Value_IO_Signal
                0x0000000000042840                bus_Configuration_1_sigOEM_BatterySTOPSignal_Selected_Feature_MDL_SignalRef
                0x0000000000042848                bus_Configuration_1_sigOEM_BatterySTOPSignal_Selected_Feature_IO_Signal
                0x0000000000042850                bus_Configuration_1_sigOEM_BatterySTOPSignal_Current_Countdown_Value_MDL_SignalRef
                0x0000000000042858                bus_Configuration_1_sigOEM_BatterySTOPSignal_Current_Countdown_Value_IO_Signal
                0x0000000000042860                bus_Configuration_1_sigCoil2DriverOpenShort_Selected_Feature_MDL_SignalRef
                0x0000000000042868                bus_Configuration_1_sigCoil2DriverOpenShort_Selected_Feature_IO_Signal
                0x0000000000042870                bus_Configuration_1_sigCoil2DriverOpenShort_Current_Countdown_Value_MDL_SignalRef
                0x0000000000042878                bus_Configuration_1_sigCoil2DriverOpenShort_Current_Countdown_Value_IO_Signal
                0x0000000000042880                bus_Configuration_1_Controller_CompleteFaults_Selected_Feature_MDL_SignalRef
                0x0000000000042888                bus_Configuration_1_Controller_CompleteFaults_Selected_Feature_IO_Signal
                0x0000000000042890                bus_Configuration_1_Controller_CompleteFaults_Current_Countdown_Value_MDL_SignalRef
                0x0000000000042898                bus_Configuration_1_Controller_CompleteFaults_Current_Countdown_Value_IO_Signal
                0x00000000000428a0                bus_Configuration_1_sigMCU6_Odometer_Selected_Feature_MDL_SignalRef
                0x00000000000428a8                bus_Configuration_1_sigMCU6_Odometer_Selected_Feature_IO_Signal
                0x00000000000428b0                bus_Configuration_1_sigMCU6_Odometer_Current_Countdown_Value_MDL_SignalRef
                0x00000000000428b8                bus_Configuration_1_sigMCU6_Odometer_Current_Countdown_Value_IO_Signal
                0x00000000000428c0                bus_Configuration_1_sigMCU5_DriveMode_Value_MDL_SignalRef_2
                0x00000000000428c8                bus_Configuration_1_sigMCU5_DriveMode_Value_IO_Signal
                0x00000000000428d0                bus_Configuration_1_sigMCU5_RegenFlag_Value_MDL_SignalRef_2
                0x00000000000428d8                bus_Configuration_1_sigMCU5_RegenFlag_Value_IO_Signal
                0x00000000000428e0                bus_Configuration_1_sigMCU5_Speed_Value_MDL_SignalRef_2
                0x00000000000428e8                bus_Configuration_1_sigMCU5_Speed_Value_IO_Signal
                0x00000000000428f0                bus_Configuration_1_sigMCU5_Hillhold_Value_MDL_SignalRef_2
                0x00000000000428f8                bus_Configuration_1_sigMCU5_Hillhold_Value_IO_Signal
                0x0000000000042900                bus_Configuration_1_sigMCU5_Efficiency_Value_MDL_SignalRef_2
                0x0000000000042908                bus_Configuration_1_sigMCU5_Efficiency_Value_IO_Signal
                0x0000000000042910                bus_Configuration_1_sigMotorRPM_Value_MDL_SignalRef
                0x0000000000042918                bus_Configuration_1_sigMotorRPM_Value_IO_Signal
                0x0000000000042920                bus_Configuration_1_sigCapacitorVoltage_Value_MDL_SignalRef
                0x0000000000042928                bus_Configuration_1_sigCapacitorVoltage_Value_IO_Signal
                0x0000000000042930                bus_Configuration_1_sigOdometer_Value_MDL_SignalRef
                0x0000000000042938                bus_Configuration_1_sigOdometer_Value_IO_Signal
                0x0000000000042940                bus_Configuration_1_sigControllerTemperature_Value_MDL_SignalRef_1
                0x0000000000042948                bus_Configuration_1_sigControllerTemperature_Value_IO_Signal_1
                0x0000000000042950                bus_Configuration_1_sigMotorTemperature_Value_MDL_SignalRef_1
                0x0000000000042958                bus_Configuration_1_sigMotorTemperature_Value_IO_Signal_1
                0x0000000000042960                bus_Configuration_1_sigRMSCurrent_Value_MDL_SignalRef_1
                0x0000000000042968                bus_Configuration_1_sigRMSCurrent_Value_IO_Signal_1
                0x0000000000042970                bus_Configuration_1_sigThrottle_Value_MDL_SignalRef_1
                0x0000000000042978                bus_Configuration_1_sigThrottle_Value_IO_Signal_1
                0x0000000000042980                bus_Configuration_1_sigSpeed_Value_MDL_SignalRef_1
                0x0000000000042988                bus_Configuration_1_sigSpeed_Value_IO_Signal_1
                0x0000000000042990                bus_Configuration_1_sigDriveMode_Value_MDL_SignalRef_1
                0x0000000000042998                bus_Configuration_1_sigDriveMode_Value_IO_Signal_1
                0x00000000000429a0                bus_Configuration_1_sigBrake_Value_MDL_SignalRef_1
                0x00000000000429a8                bus_Configuration_1_sigBrake_Value_IO_Signal_1
                0x00000000000429b0                bus_Configuration_1_sigBatteryCurrent_Value_MDL_SignalRef_1
                0x00000000000429b8                bus_Configuration_1_sigBatteryCurrent_Value_IO_Signal_1
                0x00000000000429c0                bus_Configuration_1_sigDriveCurrentLimit_Value_MDL_SignalRef_1
                0x00000000000429c8                bus_Configuration_1_sigDriveCurrentLimit_Value_IO_Signal_1
                0x00000000000429d0                bus_Configuration_1_sigRegenCurrentLimit_Value_MDL_SignalRef_1
                0x00000000000429d8                bus_Configuration_1_sigRegenCurrentLimit_Value_IO_Signal_1
                0x00000000000429e0                bus_Configuration_1_sigVehicleModeRequest_Value_MDL_SignalRef_1
                0x00000000000429e8                bus_Configuration_1_sigVehicleModeRequest_Value_IO_Signal_1
                0x00000000000429f0                bus_Configuration_1_sigStateOfCharge_Value_MDL_SignalRef_1
                0x00000000000429f8                bus_Configuration_1_sigStateOfCharge_Value_IO_Signal_2
                0x0000000000042a00                bus_Configuration_1_sigKeyOnIndicator_Value_MDL_SignalRef_1
                0x0000000000042a08                bus_Configuration_1_sigKeyOnIndicator_Value_IO_Signal_2
                0x0000000000042a10                bus_Configuration_1_sigBatteryMalfunctionLight_Value_MDL_SignalRef_1
                0x0000000000042a18                bus_Configuration_1_sigBatteryMalfunctionLight_Value_IO_Signal_2
                0x0000000000042a20                bus_Configuration_1_sigControllerCommonFault_Value_MDL_SignalRef_1
                0x0000000000042a28                bus_Configuration_1_sigControllerCommonFault_Value_IO_Signal_1
                0x0000000000042a30                bus_Configuration_1_sigControllerOverCurrent_Value_MDL_SignalRef_1
                0x0000000000042a38                bus_Configuration_1_sigControllerOverCurrent_Value_IO_Signal_1
                0x0000000000042a40                bus_Configuration_1_sigCurrentSensorFault_Value_MDL_SignalRef_1
                0x0000000000042a48                bus_Configuration_1_sigCurrentSensorFault_Value_IO_Signal_1
                0x0000000000042a50                bus_Configuration_1_sigPrechargeFailed_Value_MDL_SignalRef_1
                0x0000000000042a58                bus_Configuration_1_sigPrechargeFailed_Value_IO_Signal_1
                0x0000000000042a60                bus_Configuration_1_sigControllerSevereUndertemp_Value_MDL_SignalRef_1
                0x0000000000042a68                bus_Configuration_1_sigControllerSevereUndertemp_Value_IO_Signal_1
                0x0000000000042a70                bus_Configuration_1_sigControllerSevereOvertemp_Value_MDL_SignalRef_1
                0x0000000000042a78                bus_Configuration_1_sigControllerSevereOvertemp_Value_IO_Signal_1
                0x0000000000042a80                bus_Configuration_1_sigSevereBPosUndervoltage_Value_MDL_SignalRef_1
                0x0000000000042a88                bus_Configuration_1_sigSevereBPosUndervoltage_Value_IO_Signal_1
                0x0000000000042a90                bus_Configuration_1_sigSevereKSIUndervoltage_Value_MDL_SignalRef_1
                0x0000000000042a98                bus_Configuration_1_sigSevereKSIUndervoltage_Value_IO_Signal_1
                0x0000000000042aa0                bus_Configuration_1_sigSevereBPosOvervoltage_Value_MDL_SignalRef_1
                0x0000000000042aa8                bus_Configuration_1_sigSevereBPosOvervoltage_Value_IO_Signal_1
                0x0000000000042ab0                bus_Configuration_1_sigSevereKSIOvervoltage_Value_MDL_SignalRef_1
                0x0000000000042ab8                bus_Configuration_1_sigSevereKSIOvervoltage_Value_IO_Signal_1
                0x0000000000042ac0                bus_Configuration_1_sigControllerOvertempCutback_Value_MDL_SignalRef_1
                0x0000000000042ac8                bus_Configuration_1_sigControllerOvertempCutback_Value_IO_Signal_1
                0x0000000000042ad0                bus_Configuration_1_sigBPosUndervoltageCutback_Value_MDL_SignalRef_1
                0x0000000000042ad8                bus_Configuration_1_sigBPosUndervoltageCutback_Value_IO_Signal_1
                0x0000000000042ae0                bus_Configuration_1_sigBPosOvervoltageCutback_Value_MDL_SignalRef_1
                0x0000000000042ae8                bus_Configuration_1_sigBPosOvervoltageCutback_Value_IO_Signal_1
                0x0000000000042af0                bus_Configuration_1_sig5VSupplyFailure_Value_MDL_SignalRef_1
                0x0000000000042af8                bus_Configuration_1_sig5VSupplyFailure_Value_IO_Signal_1
                0x0000000000042b00                bus_Configuration_1_sigMotorTempHotCutback_Value_MDL_SignalRef_1
                0x0000000000042b08                bus_Configuration_1_sigMotorTempHotCutback_Value_IO_Signal_1
                0x0000000000042b10                bus_Configuration_1_sigMotorTempSensorFault_Value_MDL_SignalRef_1
                0x0000000000042b18                bus_Configuration_1_sigMotorTempSensorFault_Value_IO_Signal_1
                0x0000000000042b20                bus_Configuration_1_sigMainOpenShort_Value_MDL_SignalRef_1
                0x0000000000042b28                bus_Configuration_1_sigMainOpenShort_Value_IO_Signal_1
                0x0000000000042b30                bus_Configuration_1_sigSinCosSensorFault_Value_MDL_SignalRef_1
                0x0000000000042b38                bus_Configuration_1_sigSinCosSensorFault_Value_IO_Signal_1
                0x0000000000042b40                bus_Configuration_1_sigMotorPhaseOpen_Value_MDL_SignalRef_1
                0x0000000000042b48                bus_Configuration_1_sigMotorPhaseOpen_Value_IO_Signal_1
                0x0000000000042b50                bus_Configuration_1_sigMainContactorWelded_Value_MDL_SignalRef_1
                0x0000000000042b58                bus_Configuration_1_sigMainContactorWelded_Value_IO_Signal_1
                0x0000000000042b60                bus_Configuration_1_sigMainContactordidnotClose_Value_MDL_SignalRef_1
                0x0000000000042b68                bus_Configuration_1_sigMainContactordidnotClose_Value_IO_Signal_1
                0x0000000000042b70                bus_Configuration_1_sigThrottlewiperHigh_Value_MDL_SignalRef_1
                0x0000000000042b78                bus_Configuration_1_sigThrottlewiperHigh_Value_IO_Signal_1
                0x0000000000042b80                bus_Configuration_1_sigThrottlewiperLow_Value_MDL_SignalRef_1
                0x0000000000042b88                bus_Configuration_1_sigThrottlewiperLow_Value_IO_Signal_1
                0x0000000000042b90                bus_Configuration_1_sigEEPROMFailure_Value_MDL_SignalRef_1
                0x0000000000042b98                bus_Configuration_1_sigEEPROMFailure_Value_IO_Signal_1
                0x0000000000042ba0                bus_Configuration_1_sigVCLRunTimeError_Value_MDL_SignalRef_1
                0x0000000000042ba8                bus_Configuration_1_sigVCLRunTimeError_Value_IO_Signal_1
                0x0000000000042bb0                bus_Configuration_1_sigMotorCharacterization_Value_MDL_SignalRef_1
                0x0000000000042bb8                bus_Configuration_1_sigMotorCharacterization_Value_IO_Signal_1
                0x0000000000042bc0                bus_Configuration_1_sigParameterChangeFault_Value_MDL_SignalRef_1
                0x0000000000042bc8                bus_Configuration_1_sigParameterChangeFault_Value_IO_Signal_1
                0x0000000000042bd0                bus_Configuration_1_sigStallDetected_Value_MDL_SignalRef_1
                0x0000000000042bd8                bus_Configuration_1_sigStallDetected_Value_IO_Signal_1
                0x0000000000042be0                bus_Configuration_1_sigBrakeWiperHigh_Value_MDL_SignalRef_1
                0x0000000000042be8                bus_Configuration_1_sigBrakeWiperHigh_Value_IO_Signal_1
                0x0000000000042bf0                bus_Configuration_1_sigBrakeWiperLow_Value_MDL_SignalRef_1
                0x0000000000042bf8                bus_Configuration_1_sigBrakeWiperLow_Value_IO_Signal_1
                0x0000000000042c00                bus_Configuration_1_sigHighPedalDisable_Value_MDL_SignalRef_1
                0x0000000000042c08                bus_Configuration_1_sigHighPedalDisable_Value_IO_Signal_1
                0x0000000000042c10                bus_Configuration_1_sigCoil4DriverOpenShort_Value_MDL_SignalRef_1
                0x0000000000042c18                bus_Configuration_1_sigCoil4DriverOpenShort_Value_IO_Signal_1
                0x0000000000042c20                bus_Configuration_1_sigCoil3DriverOpenShort_Value_MDL_SignalRef_1
                0x0000000000042c28                bus_Configuration_1_sigCoil3DriverOpenShort_Value_IO_Signal_1
                0x0000000000042c30                bus_Configuration_1_sigSupervisorFault_Value_MDL_SignalRef_1
                0x0000000000042c38                bus_Configuration_1_sigSupervisorFault_Value_IO_Signal_1
                0x0000000000042c40                bus_Configuration_1_sigBadCalibration_Value_MDL_SignalRef_1
                0x0000000000042c48                bus_Configuration_1_sigBadCalibration_Value_IO_Signal_1
                0x0000000000042c50                bus_Configuration_1_sigPMACCommissioningNeeded_Value_MDL_SignalRef_1
                0x0000000000042c58                bus_Configuration_1_sigPMACCommissioningNeeded_Value_IO_Signal_1
                0x0000000000042c60                bus_Configuration_1_sigSinCosMisalignment_Value_MDL_SignalRef_1
                0x0000000000042c68                bus_Configuration_1_sigSinCosMisalignment_Value_IO_Signal_1
                0x0000000000042c70                bus_Configuration_1_sigPhasePWMMismatch_Value_MDL_SignalRef_1
                0x0000000000042c78                bus_Configuration_1_sigPhasePWMMismatch_Value_IO_Signal_1
                0x0000000000042c80                bus_Configuration_1_sigInsulationResistanceLow_Value_MDL_SignalRef_1
                0x0000000000042c88                bus_Configuration_1_sigInsulationResistanceLow_Value_IO_Signal_1
                0x0000000000042c90                bus_Configuration_1_sigOSGeneral_Value_MDL_SignalRef_1
                0x0000000000042c98                bus_Configuration_1_sigOSGeneral_Value_IO_Signal_1
                0x0000000000042ca0                bus_Configuration_1_sigOEM_NoBatteryCAN_Value_MDL_SignalRef_1
                0x0000000000042ca8                bus_Configuration_1_sigOEM_NoBatteryCAN_Value_IO_Signal_1
                0x0000000000042cb0                bus_Configuration_1_sigOEM_BatterySTOPSignal_Value_MDL_SignalRef_1
                0x0000000000042cb8                bus_Configuration_1_sigOEM_BatterySTOPSignal_Value_IO_Signal_1
                0x0000000000042cc0                bus_Configuration_1_sigCoil2DriverOpenShort_Value_MDL_SignalRef_1
                0x0000000000042cc8                bus_Configuration_1_sigCoil2DriverOpenShort_Value_IO_Signal_1
                0x0000000000042cd0                bus_Configuration_1_Controller_CompleteFaults_Value_MDL_SignalRef_1
                0x0000000000042cd8                bus_Configuration_1_Controller_CompleteFaults_Value_IO_Signal_1
                0x0000000000042ce0                bus_Configuration_1_sigMCU5_DriveMode_Value_MDL_SignalRef_1
                0x0000000000042ce8                bus_Configuration_1_sigMCU5_DriveMode_Value_IO_Signal_2
                0x0000000000042cf0                bus_Configuration_1_sigMCU5_RegenFlag_Value_MDL_SignalRef_1
                0x0000000000042cf8                bus_Configuration_1_sigMCU5_RegenFlag_Value_IO_Signal_2
                0x0000000000042d00                bus_Configuration_1_sigMCU5_Speed_Value_MDL_SignalRef_1
                0x0000000000042d08                bus_Configuration_1_sigMCU5_Speed_Value_IO_Signal_2
                0x0000000000042d10                bus_Configuration_1_sigMCU5_Hillhold_Value_MDL_SignalRef_1
                0x0000000000042d18                bus_Configuration_1_sigMCU5_Hillhold_Value_IO_Signal_2
                0x0000000000042d20                bus_Configuration_1_sigMCU5_Efficiency_Value_MDL_SignalRef_1
                0x0000000000042d28                bus_Configuration_1_sigMCU5_Efficiency_Value_IO_Signal_2
                0x0000000000042d30                bus_Configuration_1_sigMCU6_Odometer_Value_MDL_SignalRef_1
                0x0000000000042d38                bus_Configuration_1_sigMCU6_Odometer_Value_IO_Signal_1
                0x0000000000042d40                bus_Configuration_1_sigBatteryCurrent_Value_MDL_SignalRef
                0x0000000000042d48                bus_Configuration_1_sigBatteryCurrent_Value_IO_Signal_2
                0x0000000000042d50                bus_Configuration_1_sigDriveCurrentLimit_Value_MDL_SignalRef
                0x0000000000042d58                bus_Configuration_1_sigDriveCurrentLimit_Value_IO_Signal_2
                0x0000000000042d60                bus_Configuration_1_sigRegenCurrentLimit_Value_MDL_SignalRef
                0x0000000000042d68                bus_Configuration_1_sigRegenCurrentLimit_Value_IO_Signal_2
                0x0000000000042d70                bus_Configuration_1_sigVehicleModeRequest_Value_MDL_SignalRef
                0x0000000000042d78                bus_Configuration_1_sigVehicleModeRequest_Value_IO_Signal_2
                0x0000000000042d80                bus_Configuration_1_sigStateOfCharge_Value_MDL_SignalRef
                0x0000000000042d88                bus_Configuration_1_sigStateOfCharge_Value_IO_Signal_1
                0x0000000000042d90                bus_Configuration_1_sigKeyOnIndicator_Value_MDL_SignalRef
                0x0000000000042d98                bus_Configuration_1_sigKeyOnIndicator_Value_IO_Signal_1
                0x0000000000042da0                bus_Configuration_1_sigBatteryMalfunctionLight_Value_MDL_SignalRef
                0x0000000000042da8                bus_Configuration_1_sigBatteryMalfunctionLight_Value_IO_Signal_1
                0x0000000000042db0                bus_Configuration_1_sigControllerTemperature_Value_MDL_SignalRef
                0x0000000000042db8                bus_Configuration_1_sigControllerTemperature_Value_IO_Signal
                0x0000000000042dc0                bus_Configuration_1_sigMotorTemperature_Value_MDL_SignalRef
                0x0000000000042dc8                bus_Configuration_1_sigMotorTemperature_Value_IO_Signal
                0x0000000000042dd0                bus_Configuration_1_sigRMSCurrent_Value_MDL_SignalRef
                0x0000000000042dd8                bus_Configuration_1_sigRMSCurrent_Value_IO_Signal
                0x0000000000042de0                bus_Configuration_1_sigThrottle_Value_MDL_SignalRef
                0x0000000000042de8                bus_Configuration_1_sigThrottle_Value_IO_Signal
                0x0000000000042df0                bus_Configuration_1_sigSpeed_Value_MDL_SignalRef
                0x0000000000042df8                bus_Configuration_1_sigSpeed_Value_IO_Signal
                0x0000000000042e00                bus_Configuration_1_sigDriveMode_Value_MDL_SignalRef
                0x0000000000042e08                bus_Configuration_1_sigDriveMode_Value_IO_Signal
                0x0000000000042e10                bus_Configuration_1_sigBrake_Value_MDL_SignalRef
                0x0000000000042e18                bus_Configuration_1_sigBrake_Value_IO_Signal
                0x0000000000042e20                bus_Configuration_1_sigControllerCommonFault_Value_MDL_SignalRef
                0x0000000000042e28                bus_Configuration_1_sigControllerCommonFault_Value_IO_Signal
                0x0000000000042e30                bus_Configuration_1_sigControllerOverCurrent_Value_MDL_SignalRef
                0x0000000000042e38                bus_Configuration_1_sigControllerOverCurrent_Value_IO_Signal
                0x0000000000042e40                bus_Configuration_1_sigCurrentSensorFault_Value_MDL_SignalRef
                0x0000000000042e48                bus_Configuration_1_sigCurrentSensorFault_Value_IO_Signal
                0x0000000000042e50                bus_Configuration_1_sigPrechargeFailed_Value_MDL_SignalRef
                0x0000000000042e58                bus_Configuration_1_sigPrechargeFailed_Value_IO_Signal
                0x0000000000042e60                bus_Configuration_1_sigControllerSevereUndertemp_Value_MDL_SignalRef
                0x0000000000042e68                bus_Configuration_1_sigControllerSevereUndertemp_Value_IO_Signal
                0x0000000000042e70                bus_Configuration_1_sigControllerSevereOvertemp_Value_MDL_SignalRef
                0x0000000000042e78                bus_Configuration_1_sigControllerSevereOvertemp_Value_IO_Signal
                0x0000000000042e80                bus_Configuration_1_sigSevereBPosUndervoltage_Value_MDL_SignalRef
                0x0000000000042e88                bus_Configuration_1_sigSevereBPosUndervoltage_Value_IO_Signal
                0x0000000000042e90                bus_Configuration_1_sigSevereKSIUndervoltage_Value_MDL_SignalRef
                0x0000000000042e98                bus_Configuration_1_sigSevereKSIUndervoltage_Value_IO_Signal
                0x0000000000042ea0                bus_Configuration_1_sigSevereBPosOvervoltage_Value_MDL_SignalRef
                0x0000000000042ea8                bus_Configuration_1_sigSevereBPosOvervoltage_Value_IO_Signal
                0x0000000000042eb0                bus_Configuration_1_sigSevereKSIOvervoltage_Value_MDL_SignalRef
                0x0000000000042eb8                bus_Configuration_1_sigSevereKSIOvervoltage_Value_IO_Signal
                0x0000000000042ec0                bus_Configuration_1_sigControllerOvertempCutback_Value_MDL_SignalRef
                0x0000000000042ec8                bus_Configuration_1_sigControllerOvertempCutback_Value_IO_Signal
                0x0000000000042ed0                bus_Configuration_1_sigBPosUndervoltageCutback_Value_MDL_SignalRef
                0x0000000000042ed8                bus_Configuration_1_sigBPosUndervoltageCutback_Value_IO_Signal
                0x0000000000042ee0                bus_Configuration_1_sigBPosOvervoltageCutback_Value_MDL_SignalRef
                0x0000000000042ee8                bus_Configuration_1_sigBPosOvervoltageCutback_Value_IO_Signal
                0x0000000000042ef0                bus_Configuration_1_sig5VSupplyFailure_Value_MDL_SignalRef
                0x0000000000042ef8                bus_Configuration_1_sig5VSupplyFailure_Value_IO_Signal
                0x0000000000042f00                bus_Configuration_1_sigMotorTempHotCutback_Value_MDL_SignalRef
                0x0000000000042f08                bus_Configuration_1_sigMotorTempHotCutback_Value_IO_Signal
                0x0000000000042f10                bus_Configuration_1_sigMotorTempSensorFault_Value_MDL_SignalRef
                0x0000000000042f18                bus_Configuration_1_sigMotorTempSensorFault_Value_IO_Signal
                0x0000000000042f20                bus_Configuration_1_sigMainOpenShort_Value_MDL_SignalRef
                0x0000000000042f28                bus_Configuration_1_sigMainOpenShort_Value_IO_Signal
                0x0000000000042f30                bus_Configuration_1_sigSinCosSensorFault_Value_MDL_SignalRef
                0x0000000000042f38                bus_Configuration_1_sigSinCosSensorFault_Value_IO_Signal
                0x0000000000042f40                bus_Configuration_1_sigMotorPhaseOpen_Value_MDL_SignalRef
                0x0000000000042f48                bus_Configuration_1_sigMotorPhaseOpen_Value_IO_Signal
                0x0000000000042f50                bus_Configuration_1_sigMainContactorWelded_Value_MDL_SignalRef
                0x0000000000042f58                bus_Configuration_1_sigMainContactorWelded_Value_IO_Signal
                0x0000000000042f60                bus_Configuration_1_sigMainContactordidnotClose_Value_MDL_SignalRef
                0x0000000000042f68                bus_Configuration_1_sigMainContactordidnotClose_Value_IO_Signal
                0x0000000000042f70                bus_Configuration_1_sigThrottlewiperHigh_Value_MDL_SignalRef
                0x0000000000042f78                bus_Configuration_1_sigThrottlewiperHigh_Value_IO_Signal
                0x0000000000042f80                bus_Configuration_1_sigThrottlewiperLow_Value_MDL_SignalRef
                0x0000000000042f88                bus_Configuration_1_sigThrottlewiperLow_Value_IO_Signal
                0x0000000000042f90                bus_Configuration_1_sigEEPROMFailure_Value_MDL_SignalRef
                0x0000000000042f98                bus_Configuration_1_sigEEPROMFailure_Value_IO_Signal
                0x0000000000042fa0                bus_Configuration_1_sigVCLRunTimeError_Value_MDL_SignalRef
                0x0000000000042fa8                bus_Configuration_1_sigVCLRunTimeError_Value_IO_Signal
                0x0000000000042fb0                bus_Configuration_1_sigMotorCharacterization_Value_MDL_SignalRef
                0x0000000000042fb8                bus_Configuration_1_sigMotorCharacterization_Value_IO_Signal
                0x0000000000042fc0                bus_Configuration_1_sigParameterChangeFault_Value_MDL_SignalRef
                0x0000000000042fc8                bus_Configuration_1_sigParameterChangeFault_Value_IO_Signal
                0x0000000000042fd0                bus_Configuration_1_sigStallDetected_Value_MDL_SignalRef
                0x0000000000042fd8                bus_Configuration_1_sigStallDetected_Value_IO_Signal
                0x0000000000042fe0                bus_Configuration_1_sigBrakeWiperHigh_Value_MDL_SignalRef
                0x0000000000042fe8                bus_Configuration_1_sigBrakeWiperHigh_Value_IO_Signal
                0x0000000000042ff0                bus_Configuration_1_sigBrakeWiperLow_Value_MDL_SignalRef
                0x0000000000042ff8                bus_Configuration_1_sigBrakeWiperLow_Value_IO_Signal
                0x0000000000043000                bus_Configuration_1_sigHighPedalDisable_Value_MDL_SignalRef
                0x0000000000043008                bus_Configuration_1_sigHighPedalDisable_Value_IO_Signal
                0x0000000000043010                bus_Configuration_1_sigCoil4DriverOpenShort_Value_MDL_SignalRef
                0x0000000000043018                bus_Configuration_1_sigCoil4DriverOpenShort_Value_IO_Signal
                0x0000000000043020                bus_Configuration_1_sigCoil3DriverOpenShort_Value_MDL_SignalRef
                0x0000000000043028                bus_Configuration_1_sigCoil3DriverOpenShort_Value_IO_Signal
                0x0000000000043030                bus_Configuration_1_sigSupervisorFault_Value_MDL_SignalRef
                0x0000000000043038                bus_Configuration_1_sigSupervisorFault_Value_IO_Signal
                0x0000000000043040                bus_Configuration_1_sigBadCalibration_Value_MDL_SignalRef
                0x0000000000043048                bus_Configuration_1_sigBadCalibration_Value_IO_Signal
                0x0000000000043050                bus_Configuration_1_sigPMACCommissioningNeeded_Value_MDL_SignalRef
                0x0000000000043058                bus_Configuration_1_sigPMACCommissioningNeeded_Value_IO_Signal
                0x0000000000043060                bus_Configuration_1_sigSinCosMisalignment_Value_MDL_SignalRef
                0x0000000000043068                bus_Configuration_1_sigSinCosMisalignment_Value_IO_Signal
                0x0000000000043070                bus_Configuration_1_sigPhasePWMMismatch_Value_MDL_SignalRef
                0x0000000000043078                bus_Configuration_1_sigPhasePWMMismatch_Value_IO_Signal
                0x0000000000043080                bus_Configuration_1_sigInsulationResistanceLow_Value_MDL_SignalRef
                0x0000000000043088                bus_Configuration_1_sigInsulationResistanceLow_Value_IO_Signal
                0x0000000000043090                bus_Configuration_1_sigOSGeneral_Value_MDL_SignalRef
                0x0000000000043098                bus_Configuration_1_sigOSGeneral_Value_IO_Signal
                0x00000000000430a0                bus_Configuration_1_sigOEM_NoBatteryCAN_Value_MDL_SignalRef
                0x00000000000430a8                bus_Configuration_1_sigOEM_NoBatteryCAN_Value_IO_Signal
                0x00000000000430b0                bus_Configuration_1_sigOEM_BatterySTOPSignal_Value_MDL_SignalRef
                0x00000000000430b8                bus_Configuration_1_sigOEM_BatterySTOPSignal_Value_IO_Signal
                0x00000000000430c0                bus_Configuration_1_sigCoil2DriverOpenShort_Value_MDL_SignalRef
                0x00000000000430c8                bus_Configuration_1_sigCoil2DriverOpenShort_Value_IO_Signal
                0x00000000000430d0                bus_Configuration_1_Controller_CompleteFaults_Value_MDL_SignalRef
                0x00000000000430d8                bus_Configuration_1_Controller_CompleteFaults_Value_IO_Signal
                0x00000000000430e0                bus_Configuration_1_sigMCU5_DriveMode_Value_MDL_SignalRef
                0x00000000000430e8                bus_Configuration_1_sigMCU5_DriveMode_Value_IO_Signal_1
                0x00000000000430f0                bus_Configuration_1_sigMCU5_RegenFlag_Value_MDL_SignalRef
                0x00000000000430f8                bus_Configuration_1_sigMCU5_RegenFlag_Value_IO_Signal_1
                0x0000000000043100                bus_Configuration_1_sigMCU5_Speed_Value_MDL_SignalRef
                0x0000000000043108                bus_Configuration_1_sigMCU5_Speed_Value_IO_Signal_1
                0x0000000000043110                bus_Configuration_1_sigMCU5_Hillhold_Value_MDL_SignalRef
                0x0000000000043118                bus_Configuration_1_sigMCU5_Hillhold_Value_IO_Signal_1
                0x0000000000043120                bus_Configuration_1_sigMCU5_Efficiency_Value_MDL_SignalRef
                0x0000000000043128                bus_Configuration_1_sigMCU5_Efficiency_Value_IO_Signal_1
                0x0000000000043130                bus_Configuration_1_sigMCU6_Odometer_Value_MDL_SignalRef
                0x0000000000043138                bus_Configuration_1_sigMCU6_Odometer_Value_IO_Signal
                0x0000000000043140                wIP_1_CAN_RX_TaskId
                0x0000000000043148                wIP_1_CAN_ChannelHandle
                0x0000000000043150                wIP_1_CAN_BoardHandle
                0x0000000000043158                CANPluginChannelAddress_WIP__1_
                0x0000000000043160                pWIP_1_DriverHandle
 .bss           0x0000000000043168        0x0 dssimengine_accesspoint_CAN.o64
 .bss           0x0000000000043168        0x0 IOCode_TestAutomationInit_0.o64
 *fill*         0x0000000000043168        0x8 
 .bss           0x0000000000043170       0x30 BusManager_Bus_Configuration_i1_i12777_1.o64
 .bss           0x00000000000431a0        0x9 Bus_Configuration_i1_i12777.o64
                0x00000000000431a0                Bus_Configuration_i1_i12777_BusCfg_CurrentTime
                0x00000000000431a8                Bus_Configuration_i1_i12777_InitState
 .bss           0x00000000000431a9        0x0 Bus_Configuration_i1_i12777_tx.o64
 .bss           0x00000000000431a9        0x1 Bus_Configuration_i1_i12777_if.o64
                0x00000000000431a9                Bus_Configuration_i1_i12777_sw0
 *fill*         0x00000000000431aa        0x6 
 .bss           0x00000000000431b0        0x8 Bus_Configuration_i1_i12777_CAN.o64
                0x00000000000431b0                Bus_Configuration_i1_i12777_CanIfHthIdSymRef
 .bss           0x00000000000431b8        0x8 BusRtCode.o64
                0x00000000000431b8                LastCanBoardUpdateTime_CANBUSACCESS_1_CAN_CH
 .bss           0x00000000000431c0        0x0 ConvertHwTimeToSimTime.o64
 .bss           0x00000000000431c0        0x4 C:\Users\MURTI\AppData\Local\Temp\dSPACE\CfgDesk\AppCache\3\Build\EXP_03\Compile\DriveSystemControl\DriveSystemControl.a(DriveSystemControl_dsrtmdlfcn.o64)
                0x00000000000431c0                DSRTStopSimulation
 .bss           0x00000000000431c4        0x0 C:\Users\MURTI\AppData\Local\Temp\dSPACE\CfgDesk\AppCache\3\Build\EXP_03\Compile\DriveSystemControl\DriveSystemControl.a(DriveSystemControl_dsrttf.o64)
 *fill*         0x00000000000431c4       0x1c 
 .bss           0x00000000000431e0      0xc28 C:\Users\MURTI\AppData\Local\Temp\dSPACE\CfgDesk\AppCache\3\Build\EXP_03\Compile\DriveSystemControl\DriveSystemControl.a(DriveSystemControl.o64)
                0x00000000000431e0                DriveSystemControl_DW
                0x0000000000043ae0                DriveSystemControl_B
 .bss           0x0000000000043e08        0x0 C:\Users\MURTI\AppData\Local\Temp\dSPACE\CfgDesk\AppCache\3\Build\EXP_03\Compile\DriveSystemControl\DriveSystemControl.a(DriveSystemControl_data.o64)
 *fill*         0x0000000000043e08       0x18 
 .bss           0x0000000000043e20      0x760 C:\Users\MURTI\AppData\Local\Temp\dSPACE\CfgDesk\AppCache\3\Build\EXP_03\Compile\DriveSystemControl\DriveSystemControl.a(DriveSystemControl_dsmpb_bd.o64)
                0x0000000000043e20                Bus_read_DriveSystemControl_DataInport1_P1
                0x0000000000044160                Bus_write_DriveSystemControl_DataOutport1_P1
 .bss           0x0000000000044580       0x50 C:\Users\MURTI\AppData\Local\Temp\dSPACE\CfgDesk\AppCache\3\Build\EXP_03\Compile\DriveSystemControl\DriveSystemControl.a(DriveSystemControl_dsrtvdf.o64)
                0x0000000000044580                p_0_DriveSystemControl_real_T_0
                0x0000000000044588                p_0_DriveSystemControl_uint32_T_1
                0x0000000000044590                p_0_DriveSystemControl_int16_T_2
                0x0000000000044598                p_0_DriveSystemControl_uint8_T_3
                0x00000000000445a0                p_0_DriveSystemControl_int8_T_4
                0x00000000000445a8                p_1_DriveSystemControl_real_T_0
                0x00000000000445b0                p_1_DriveSystemControl_uint32_T_1
                0x00000000000445b8                p_1_DriveSystemControl_int16_T_2
                0x00000000000445c0                p_1_DriveSystemControl_int8_T_3
                0x00000000000445c8                p_1_DriveSystemControl_uint8_T_4
 .bss           0x00000000000445d0        0x0 C:\Users\MURTI\AppData\Local\Temp\dSPACE\CfgDesk\AppCache\3\Build\EXP_03\Compile\Inspection_12777_1\Inspection_12777_1.a(CanInspection.o64)
 .bss           0x00000000000445d0       0x18 C:\Users\MURTI\AppData\Local\Temp\dSPACE\CfgDesk\AppCache\3\Build\EXP_03\Compile\Inspection_12777_1\Inspection_12777_1.a(CanInspection_Cfg.o64)
 .bss           0x00000000000445e8        0x0 C:\Users\MURTI\AppData\Local\Temp\dSPACE\CfgDesk\AppCache\3\Build\EXP_03\Compile\Inspection_12777_1\Inspection_12777_1.a(InspectionInterface.o64)
 .bss           0x00000000000445e8       0x41 C:\Users\MURTI\AppData\Local\Temp\dSPACE\CfgDesk\AppCache\3\Build\EXP_03\Compile\BMS_12777_1\BMS_12777_1.a(CanIf.o64)
 *fill*         0x0000000000044629        0x7 
 .bss           0x0000000000044630       0x80 C:\Users\MURTI\AppData\Local\Temp\dSPACE\CfgDesk\AppCache\3\Build\EXP_03\Compile\BMS_12777_1\BMS_12777_1.a(CanIf_Cfg.o64)
                0x0000000000044630                BM_BUS_CONFIGURATION_i1_i12777_1_BMS_g_CntrlFlags
 .bss           0x00000000000446b0        0x0 C:\Users\MURTI\AppData\Local\Temp\dSPACE\CfgDesk\AppCache\3\Build\EXP_03\Compile\BMS_12777_1\BMS_12777_1.a(CanIf_Cfg_BusAccess.o64)
 .bss           0x00000000000446b0       0x13 C:\Users\MURTI\AppData\Local\Temp\dSPACE\CfgDesk\AppCache\3\Build\EXP_03\Compile\BMS_12777_1\BMS_12777_1.a(Rte_generated.o64)
                0x00000000000446b0                Rte_TX_Inst_2485338192_sigBatteryCurrent_14654_13991_12777_phys_last
                0x00000000000446b8                Rte_TX_Inst_2485338192_sigDriveCurrentLimit_14653_13991_12777_phys_last
                0x00000000000446b9                Rte_TX_Inst_2485338192_sigRegenCurrentLimit_14652_13991_12777_phys_last
                0x00000000000446ba                Rte_TX_Inst_2485338192_sigVehicleModeRequest_14651_13991_12777_phys_last
                0x00000000000446bb                Rte_TX_Inst_2418544720_sigStateOfCharge_14657_13991_12777_phys_last
                0x00000000000446bc                Rte_TX_Inst_2418544720_sigKeyOnIndicator_14656_13991_12777_phys_last
                0x00000000000446bd                Rte_TX_Inst_2418544720_sigBatteryMalfunctionLight_14655_13991_12777_phys_last
 *fill*         0x00000000000446c3        0x1 
 .bss           0x00000000000446c4        0x4 C:\Users\MURTI\AppData\Local\Temp\dSPACE\CfgDesk\AppCache\3\Build\EXP_03\Compile\BMS_12777_1\BMS_12777_1.a(Com_generated.o64)
                0x00000000000446c4                BM_BUS_CONFIGURATION_i1_i12777_1_BMS_Com_Status
 *fill*         0x00000000000446c8        0x8 
 .bss           0x00000000000446d0       0x4d C:\Users\MURTI\AppData\Local\Temp\dSPACE\CfgDesk\AppCache\3\Build\EXP_03\Compile\BMS_12777_1\BMS_12777_1.a(Com_Tx_generated.o64)
                0x00000000000446d0                Com_TX_Inst_2485338192_sigBatteryCurrent_14654_13991_12777_sgn_val
                0x00000000000446d2                Com_TX_Inst_2485338192_sigDriveCurrentLimit_14653_13991_12777_sgn_val
                0x00000000000446d3                Com_TX_Inst_2485338192_sigRegenCurrentLimit_14652_13991_12777_sgn_val
                0x00000000000446d4                Com_TX_Inst_2485338192_sigVehicleModeRequest_14651_13991_12777_sgn_val
                0x00000000000446d5                Com_TX_Inst_2418544720_sigStateOfCharge_14657_13991_12777_sgn_val
                0x00000000000446d6                Com_TX_Inst_2418544720_sigKeyOnIndicator_14656_13991_12777_sgn_val
                0x00000000000446d7                Com_TX_Inst_2418544720_sigBatteryMalfunctionLight_14655_13991_12777_sgn_val
 *fill*         0x000000000004471d        0x3 
 .bss           0x0000000000044720       0x30 C:\Users\MURTI\AppData\Local\Temp\dSPACE\CfgDesk\AppCache\3\Build\EXP_03\Compile\BMS_12777_1\BMS_12777_1.a(Com_Rx_generated.o64)
                0x0000000000044720                Com_RX_Inst_2552692609_sigMCU5_DriveMode_14596_13991_12777_sgn_val
                0x0000000000044721                Com_RX_Inst_2552692609_sigMCU5_RegenFlag_14595_13991_12777_sgn_val
                0x0000000000044722                Com_RX_Inst_2552692609_sigMCU5_Speed_14594_13991_12777_sgn_val
                0x0000000000044723                Com_RX_Inst_2552692609_sigMCU5_Hillhold_14593_13991_12777_sgn_val
                0x0000000000044724                Com_RX_Inst_2552692609_sigMCU5_Efficiency_14592_13991_12777_sgn_val
 .bss           0x0000000000044750        0x0 C:\Users\MURTI\AppData\Local\Temp\dSPACE\CfgDesk\AppCache\3\Build\EXP_03\Compile\BMS_12777_1\BMS_12777_1.a(PduR_Cfg_generated.o64)
 .bss           0x0000000000044750        0x0 C:\Users\MURTI\AppData\Local\Temp\dSPACE\CfgDesk\AppCache\3\Build\EXP_03\Compile\BMS_12777_1\BMS_12777_1.a(PduR_generated.o64)
 .bss           0x0000000000044750        0x4 C:\Users\MURTI\AppData\Local\Temp\dSPACE\CfgDesk\AppCache\3\Build\EXP_03\Compile\BMS_12777_1\BMS_12777_1.a(SchM_CanIf.o64)
 *fill*         0x0000000000044754        0x4 
 .bss           0x0000000000044758       0x41 C:\Users\MURTI\AppData\Local\Temp\dSPACE\CfgDesk\AppCache\3\Build\EXP_03\Compile\IPC_12777_1\IPC_12777_1.a(CanIf.o64)
 *fill*         0x0000000000044799        0x7 
 .bss           0x00000000000447a0       0xe3 C:\Users\MURTI\AppData\Local\Temp\dSPACE\CfgDesk\AppCache\3\Build\EXP_03\Compile\IPC_12777_1\IPC_12777_1.a(CanIf_Cfg.o64)
                0x00000000000447a0                BM_BUS_CONFIGURATION_i1_i12777_1_IPC_g_CntrlFlags
 .bss           0x0000000000044883        0x0 C:\Users\MURTI\AppData\Local\Temp\dSPACE\CfgDesk\AppCache\3\Build\EXP_03\Compile\IPC_12777_1\IPC_12777_1.a(CanIf_Cfg_BusAccess.o64)
 *fill*         0x0000000000044883        0x1 
 .bss           0x0000000000044884       0x41 C:\Users\MURTI\AppData\Local\Temp\dSPACE\CfgDesk\AppCache\3\Build\EXP_03\Compile\IPC_12777_1\IPC_12777_1.a(Rte_generated.o64)
 *fill*         0x00000000000448c5        0x3 
 .bss           0x00000000000448c8        0x4 C:\Users\MURTI\AppData\Local\Temp\dSPACE\CfgDesk\AppCache\3\Build\EXP_03\Compile\IPC_12777_1\IPC_12777_1.a(Com_generated.o64)
                0x00000000000448c8                BM_BUS_CONFIGURATION_i1_i12777_1_IPC_Com_Status
 .bss           0x00000000000448cc        0x0 C:\Users\MURTI\AppData\Local\Temp\dSPACE\CfgDesk\AppCache\3\Build\EXP_03\Compile\IPC_12777_1\IPC_12777_1.a(Com_Tx_generated.o64)
 *fill*         0x00000000000448cc        0x4 
 .bss           0x00000000000448d0       0xed C:\Users\MURTI\AppData\Local\Temp\dSPACE\CfgDesk\AppCache\3\Build\EXP_03\Compile\IPC_12777_1\IPC_12777_1.a(Com_Rx_generated.o64)
                0x00000000000448d0                Com_RX_Inst_2553303104_sigControllerCommonFault_14640_13990_12777_sgn_val
                0x00000000000448d1                Com_RX_Inst_2553303104_sigControllerOverCurrent_14639_13990_12777_sgn_val
                0x00000000000448d2                Com_RX_Inst_2553303104_sigCurrentSensorFault_14638_13990_12777_sgn_val
                0x00000000000448d3                Com_RX_Inst_2553303104_sigPrechargeFailed_14637_13990_12777_sgn_val
                0x00000000000448d4                Com_RX_Inst_2553303104_sigControllerSevereUndertemp_14636_13990_12777_sgn_val
                0x00000000000448d5                Com_RX_Inst_2553303104_sigControllerSevereOvertemp_14635_13990_12777_sgn_val
                0x00000000000448d6                Com_RX_Inst_2553303104_sigSevereBPosUndervoltage_14634_13990_12777_sgn_val
                0x00000000000448d7                Com_RX_Inst_2553303104_sigSevereKSIUndervoltage_14633_13990_12777_sgn_val
                0x00000000000448d8                Com_RX_Inst_2553303104_sigSevereBPosOvervoltage_14632_13990_12777_sgn_val
                0x00000000000448d9                Com_RX_Inst_2553303104_sigSevereKSIOvervoltage_14631_13990_12777_sgn_val
                0x00000000000448da                Com_RX_Inst_2553303104_sigControllerOvertempCutback_14630_13990_12777_sgn_val
                0x00000000000448db                Com_RX_Inst_2553303104_sigBPosUndervoltageCutback_14629_13990_12777_sgn_val
                0x00000000000448dc                Com_RX_Inst_2553303104_sigBPosOvervoltageCutback_14628_13990_12777_sgn_val
                0x00000000000448dd                Com_RX_Inst_2553303104_sig5VSupplyFailure_14627_13990_12777_sgn_val
                0x00000000000448de                Com_RX_Inst_2553303104_sigMotorTempHotCutback_14626_13990_12777_sgn_val
                0x00000000000448df                Com_RX_Inst_2553303104_sigMotorTempSensorFault_14625_13990_12777_sgn_val
                0x00000000000448e0                Com_RX_Inst_2553303104_sigMainOpenShort_14624_13990_12777_sgn_val
                0x00000000000448e1                Com_RX_Inst_2553303104_sigSinCosSensorFault_14623_13990_12777_sgn_val
                0x00000000000448e2                Com_RX_Inst_2553303104_sigMotorPhaseOpen_14622_13990_12777_sgn_val
                0x00000000000448e3                Com_RX_Inst_2553303104_sigMainContactorWelded_14621_13990_12777_sgn_val
                0x00000000000448e4                Com_RX_Inst_2553303104_sigMainContactordidnotClose_14620_13990_12777_sgn_val
                0x00000000000448e5                Com_RX_Inst_2553303104_sigThrottlewiperHigh_14619_13990_12777_sgn_val
                0x00000000000448e6                Com_RX_Inst_2553303104_sigThrottlewiperLow_14618_13990_12777_sgn_val
                0x00000000000448e7                Com_RX_Inst_2553303104_sigEEPROMFailure_14617_13990_12777_sgn_val
                0x00000000000448e8                Com_RX_Inst_2553303104_sigVCLRunTimeError_14616_13990_12777_sgn_val
                0x00000000000448e9                Com_RX_Inst_2553303104_sigMotorCharacterization_14615_13990_12777_sgn_val
                0x00000000000448ea                Com_RX_Inst_2553303104_sigParameterChangeFault_14614_13990_12777_sgn_val
                0x00000000000448eb                Com_RX_Inst_2553303104_sigStallDetected_14613_13990_12777_sgn_val
                0x00000000000448ec                Com_RX_Inst_2553303104_sigBrakeWiperHigh_14612_13990_12777_sgn_val
                0x00000000000448ed                Com_RX_Inst_2553303104_sigBrakeWiperLow_14611_13990_12777_sgn_val
                0x00000000000448ee                Com_RX_Inst_2553303104_sigHighPedalDisable_14610_13990_12777_sgn_val
                0x00000000000448ef                Com_RX_Inst_2553303104_sigCoil4DriverOpenShort_14609_13990_12777_sgn_val
                0x00000000000448f0                Com_RX_Inst_2553303104_sigCoil3DriverOpenShort_14608_13990_12777_sgn_val
                0x00000000000448f1                Com_RX_Inst_2553303104_sigSupervisorFault_14607_13990_12777_sgn_val
                0x00000000000448f2                Com_RX_Inst_2553303104_sigBadCalibration_14606_13990_12777_sgn_val
                0x00000000000448f3                Com_RX_Inst_2553303104_sigPMACCommissioningNeeded_14605_13990_12777_sgn_val
                0x00000000000448f4                Com_RX_Inst_2553303104_sigSinCosMisalignment_14604_13990_12777_sgn_val
                0x00000000000448f5                Com_RX_Inst_2553303104_sigPhasePWMMismatch_14603_13990_12777_sgn_val
                0x00000000000448f6                Com_RX_Inst_2553303104_sigInsulationResistanceLow_14602_13990_12777_sgn_val
                0x00000000000448f7                Com_RX_Inst_2553303104_sigOSGeneral_14601_13990_12777_sgn_val
                0x00000000000448f8                Com_RX_Inst_2553303104_sigOEM_NoBatteryCAN_14600_13990_12777_sgn_val
                0x00000000000448f9                Com_RX_Inst_2553303104_sigOEM_BatterySTOPSignal_14599_13990_12777_sgn_val
                0x00000000000448fa                Com_RX_Inst_2553303104_sigCoil2DriverOpenShort_14598_13990_12777_sgn_val
                0x00000000000448fb                Com_RX_Inst_2553303104_Controller_CompleteFaults_14597_13990_12777_sgn_val
                0x00000000000448fc                Com_RX_Inst_2552758145_sigMCU6_Odometer_14591_13990_12777_sgn_val
                0x0000000000044900                Com_RX_Inst_2552692609_sigMCU5_DriveMode_14596_13990_12777_sgn_val
                0x0000000000044901                Com_RX_Inst_2552692609_sigMCU5_RegenFlag_14595_13990_12777_sgn_val
                0x0000000000044902                Com_RX_Inst_2552692609_sigMCU5_Speed_14594_13990_12777_sgn_val
                0x0000000000044903                Com_RX_Inst_2552692609_sigMCU5_Hillhold_14593_13990_12777_sgn_val
                0x0000000000044904                Com_RX_Inst_2552692609_sigMCU5_Efficiency_14592_13990_12777_sgn_val
                0x0000000000044905                Com_RX_Inst_2552647744_sigControllerTemperature_14650_13990_12777_sgn_val
                0x0000000000044906                Com_RX_Inst_2552647744_sigMotorTemperature_14649_13990_12777_sgn_val
                0x0000000000044908                Com_RX_Inst_2552647744_sigRMSCurrent_14648_13990_12777_sgn_val
                0x000000000004490a                Com_RX_Inst_2552647744_sigThrottle_14647_13990_12777_sgn_val
                0x000000000004490b                Com_RX_Inst_2552647744_sigSpeed_14646_13990_12777_sgn_val
                0x000000000004490c                Com_RX_Inst_2552647744_sigDriveMode_14645_13990_12777_sgn_val
                0x000000000004490d                Com_RX_Inst_2552647744_sigBrake_14644_13990_12777_sgn_val
                0x000000000004490e                Com_RX_Inst_2418544720_sigStateOfCharge_14657_13990_12777_sgn_val
                0x000000000004490f                Com_RX_Inst_2418544720_sigKeyOnIndicator_14656_13990_12777_sgn_val
                0x0000000000044910                Com_RX_Inst_2418544720_sigBatteryMalfunctionLight_14655_13990_12777_sgn_val
 .bss           0x00000000000449bd        0x0 C:\Users\MURTI\AppData\Local\Temp\dSPACE\CfgDesk\AppCache\3\Build\EXP_03\Compile\IPC_12777_1\IPC_12777_1.a(PduR_Cfg_generated.o64)
 .bss           0x00000000000449bd        0x0 C:\Users\MURTI\AppData\Local\Temp\dSPACE\CfgDesk\AppCache\3\Build\EXP_03\Compile\IPC_12777_1\IPC_12777_1.a(PduR_generated.o64)
 *fill*         0x00000000000449bd        0x3 
 .bss           0x00000000000449c0        0x4 C:\Users\MURTI\AppData\Local\Temp\dSPACE\CfgDesk\AppCache\3\Build\EXP_03\Compile\IPC_12777_1\IPC_12777_1.a(SchM_CanIf.o64)
 *fill*         0x00000000000449c4        0x4 
 .bss           0x00000000000449c8       0x41 C:\Users\MURTI\AppData\Local\Temp\dSPACE\CfgDesk\AppCache\3\Build\EXP_03\Compile\TCU_12777_1\TCU_12777_1.a(CanIf.o64)
 *fill*         0x0000000000044a09        0x7 
 .bss           0x0000000000044a10       0x84 C:\Users\MURTI\AppData\Local\Temp\dSPACE\CfgDesk\AppCache\3\Build\EXP_03\Compile\TCU_12777_1\TCU_12777_1.a(CanIf_Cfg.o64)
                0x0000000000044a10                BM_BUS_CONFIGURATION_i1_i12777_1_TCU_g_CntrlFlags
 .bss           0x0000000000044a94        0x0 C:\Users\MURTI\AppData\Local\Temp\dSPACE\CfgDesk\AppCache\3\Build\EXP_03\Compile\TCU_12777_1\TCU_12777_1.a(CanIf_Cfg_BusAccess.o64)
 *fill*         0x0000000000044a94        0x4 
 .bss           0x0000000000044a98       0x71 C:\Users\MURTI\AppData\Local\Temp\dSPACE\CfgDesk\AppCache\3\Build\EXP_03\Compile\TCU_12777_1\TCU_12777_1.a(Rte_generated.o64)
                0x0000000000044a98                Rte_TX_Inst_2553303104_sigControllerCommonFault_14640_13989_12777_phys_last
                0x0000000000044a99                Rte_TX_Inst_2553303104_sigControllerOverCurrent_14639_13989_12777_phys_last
                0x0000000000044a9a                Rte_TX_Inst_2553303104_sigCurrentSensorFault_14638_13989_12777_phys_last
                0x0000000000044a9b                Rte_TX_Inst_2553303104_sigPrechargeFailed_14637_13989_12777_phys_last
                0x0000000000044a9c                Rte_TX_Inst_2553303104_sigControllerSevereUndertemp_14636_13989_12777_phys_last
                0x0000000000044a9d                Rte_TX_Inst_2553303104_sigControllerSevereOvertemp_14635_13989_12777_phys_last
                0x0000000000044a9e                Rte_TX_Inst_2553303104_sigSevereBPosUndervoltage_14634_13989_12777_phys_last
                0x0000000000044a9f                Rte_TX_Inst_2553303104_sigSevereKSIUndervoltage_14633_13989_12777_phys_last
                0x0000000000044aa0                Rte_TX_Inst_2553303104_sigSevereBPosOvervoltage_14632_13989_12777_phys_last
                0x0000000000044aa1                Rte_TX_Inst_2553303104_sigSevereKSIOvervoltage_14631_13989_12777_phys_last
                0x0000000000044aa2                Rte_TX_Inst_2553303104_sigControllerOvertempCutback_14630_13989_12777_phys_last
                0x0000000000044aa3                Rte_TX_Inst_2553303104_sigBPosUndervoltageCutback_14629_13989_12777_phys_last
                0x0000000000044aa4                Rte_TX_Inst_2553303104_sigBPosOvervoltageCutback_14628_13989_12777_phys_last
                0x0000000000044aa5                Rte_TX_Inst_2553303104_sig5VSupplyFailure_14627_13989_12777_phys_last
                0x0000000000044aa6                Rte_TX_Inst_2553303104_sigMotorTempHotCutback_14626_13989_12777_phys_last
                0x0000000000044aa7                Rte_TX_Inst_2553303104_sigMotorTempSensorFault_14625_13989_12777_phys_last
                0x0000000000044aa8                Rte_TX_Inst_2553303104_sigMainOpenShort_14624_13989_12777_phys_last
                0x0000000000044aa9                Rte_TX_Inst_2553303104_sigSinCosSensorFault_14623_13989_12777_phys_last
                0x0000000000044aaa                Rte_TX_Inst_2553303104_sigMotorPhaseOpen_14622_13989_12777_phys_last
                0x0000000000044aab                Rte_TX_Inst_2553303104_sigMainContactorWelded_14621_13989_12777_phys_last
                0x0000000000044aac                Rte_TX_Inst_2553303104_sigMainContactordidnotClose_14620_13989_12777_phys_last
                0x0000000000044aad                Rte_TX_Inst_2553303104_sigThrottlewiperHigh_14619_13989_12777_phys_last
                0x0000000000044aae                Rte_TX_Inst_2553303104_sigThrottlewiperLow_14618_13989_12777_phys_last
                0x0000000000044aaf                Rte_TX_Inst_2553303104_sigEEPROMFailure_14617_13989_12777_phys_last
                0x0000000000044ab0                Rte_TX_Inst_2553303104_sigVCLRunTimeError_14616_13989_12777_phys_last
                0x0000000000044ab1                Rte_TX_Inst_2553303104_sigMotorCharacterization_14615_13989_12777_phys_last
                0x0000000000044ab2                Rte_TX_Inst_2553303104_sigParameterChangeFault_14614_13989_12777_phys_last
                0x0000000000044ab3                Rte_TX_Inst_2553303104_sigStallDetected_14613_13989_12777_phys_last
                0x0000000000044ab4                Rte_TX_Inst_2553303104_sigBrakeWiperHigh_14612_13989_12777_phys_last
                0x0000000000044ab5                Rte_TX_Inst_2553303104_sigBrakeWiperLow_14611_13989_12777_phys_last
                0x0000000000044ab6                Rte_TX_Inst_2553303104_sigHighPedalDisable_14610_13989_12777_phys_last
                0x0000000000044ab7                Rte_TX_Inst_2553303104_sigCoil4DriverOpenShort_14609_13989_12777_phys_last
                0x0000000000044ab8                Rte_TX_Inst_2553303104_sigCoil3DriverOpenShort_14608_13989_12777_phys_last
                0x0000000000044ab9                Rte_TX_Inst_2553303104_sigSupervisorFault_14607_13989_12777_phys_last
                0x0000000000044aba                Rte_TX_Inst_2553303104_sigBadCalibration_14606_13989_12777_phys_last
                0x0000000000044abb                Rte_TX_Inst_2553303104_sigPMACCommissioningNeeded_14605_13989_12777_phys_last
                0x0000000000044abc                Rte_TX_Inst_2553303104_sigSinCosMisalignment_14604_13989_12777_phys_last
                0x0000000000044abd                Rte_TX_Inst_2553303104_sigPhasePWMMismatch_14603_13989_12777_phys_last
                0x0000000000044abe                Rte_TX_Inst_2553303104_sigInsulationResistanceLow_14602_13989_12777_phys_last
                0x0000000000044abf                Rte_TX_Inst_2553303104_sigOSGeneral_14601_13989_12777_phys_last
                0x0000000000044ac0                Rte_TX_Inst_2553303104_sigOEM_NoBatteryCAN_14600_13989_12777_phys_last
                0x0000000000044ac1                Rte_TX_Inst_2553303104_sigOEM_BatterySTOPSignal_14599_13989_12777_phys_last
                0x0000000000044ac2                Rte_TX_Inst_2553303104_sigCoil2DriverOpenShort_14598_13989_12777_phys_last
                0x0000000000044ac3                Rte_TX_Inst_2553303104_Controller_CompleteFaults_14597_13989_12777_phys_last
                0x0000000000044ac8                Rte_TX_Inst_2552758145_sigMCU6_Odometer_14591_13989_12777_phys_last
                0x0000000000044ad0                Rte_TX_Inst_2552713280_sigMotorRPM_14643_13989_12777_phys_last
                0x0000000000044ad8                Rte_TX_Inst_2552713280_sigCapacitorVoltage_14642_13989_12777_phys_last
                0x0000000000044ae0                Rte_TX_Inst_2552713280_sigOdometer_14641_13989_12777_phys_last
                0x0000000000044ae8                Rte_TX_Inst_2552692609_sigMCU5_DriveMode_14596_13989_12777_phys_last
                0x0000000000044ae9                Rte_TX_Inst_2552692609_sigMCU5_RegenFlag_14595_13989_12777_phys_last
                0x0000000000044aea                Rte_TX_Inst_2552692609_sigMCU5_Speed_14594_13989_12777_phys_last
                0x0000000000044aeb                Rte_TX_Inst_2552692609_sigMCU5_Hillhold_14593_13989_12777_phys_last
                0x0000000000044aec                Rte_TX_Inst_2552692609_sigMCU5_Efficiency_14592_13989_12777_phys_last
                0x0000000000044aed                Rte_TX_Inst_2552647744_sigControllerTemperature_14650_13989_12777_phys_last
                0x0000000000044aee                Rte_TX_Inst_2552647744_sigMotorTemperature_14649_13989_12777_phys_last
                0x0000000000044af0                Rte_TX_Inst_2552647744_sigRMSCurrent_14648_13989_12777_phys_last
                0x0000000000044af8                Rte_TX_Inst_2552647744_sigThrottle_14647_13989_12777_phys_last
                0x0000000000044af9                Rte_TX_Inst_2552647744_sigSpeed_14646_13989_12777_phys_last
                0x0000000000044afa                Rte_TX_Inst_2552647744_sigDriveMode_14645_13989_12777_phys_last
                0x0000000000044afb                Rte_TX_Inst_2552647744_sigBrake_14644_13989_12777_phys_last
                0x0000000000044afc                Rte_TX_CANChannel_MainController_IPDUTriggering_1_MainController_CCU_heartBeat_SignalInstance_1_14665_13989_12777_phys_last
                0x0000000000044afd                Rte_TX_CANChannel_MainController_IPDUTriggering_1_MainController_steeringPower_SignalInstance_1_14664_13989_12777_phys_last
                0x0000000000044afe                Rte_TX_CANChannel_MainController_IPDUTriggering_1_MainController_notUsed_SignalInstance_1_14663_13989_12777_phys_last
                0x0000000000044aff                Rte_TX_CANChannel_MainController_IPDUTriggering_1_MainController_setDirection_SignalInstance_1_14662_13989_12777_phys_last
                0x0000000000044b00                Rte_TX_CANChannel_MainController_IPDUTriggering_1_MainController_setAutoParkBreak_SignalInstance_1_14661_13989_12777_phys_last
                0x0000000000044b01                Rte_TX_CANChannel_MainController_IPDUTriggering_1_MainController_setBreake_SignalInstance_1_14660_13989_12777_phys_last
                0x0000000000044b02                Rte_TX_CANChannel_MainController_IPDUTriggering_1_MainController_setVelocity_SignalInstance_1_14659_13989_12777_phys_last
                0x0000000000044b03                Rte_TX_CANChannel_MainController_IPDUTriggering_1_MainController_setDriveMode_SignalInstance_1_14658_13989_12777_phys_last
 *fill*         0x0000000000044b09        0x3 
 .bss           0x0000000000044b0c        0x4 C:\Users\MURTI\AppData\Local\Temp\dSPACE\CfgDesk\AppCache\3\Build\EXP_03\Compile\TCU_12777_1\TCU_12777_1.a(Com_generated.o64)
                0x0000000000044b0c                BM_BUS_CONFIGURATION_i1_i12777_1_TCU_Com_Status
 .bss           0x0000000000044b10      0x110 C:\Users\MURTI\AppData\Local\Temp\dSPACE\CfgDesk\AppCache\3\Build\EXP_03\Compile\TCU_12777_1\TCU_12777_1.a(Com_Tx_generated.o64)
                0x0000000000044b10                Com_TX_Inst_2553303104_sigControllerCommonFault_14640_13989_12777_sgn_val
                0x0000000000044b11                Com_TX_Inst_2553303104_sigControllerOverCurrent_14639_13989_12777_sgn_val
                0x0000000000044b12                Com_TX_Inst_2553303104_sigCurrentSensorFault_14638_13989_12777_sgn_val
                0x0000000000044b13                Com_TX_Inst_2553303104_sigPrechargeFailed_14637_13989_12777_sgn_val
                0x0000000000044b14                Com_TX_Inst_2553303104_sigControllerSevereUndertemp_14636_13989_12777_sgn_val
                0x0000000000044b15                Com_TX_Inst_2553303104_sigControllerSevereOvertemp_14635_13989_12777_sgn_val
                0x0000000000044b16                Com_TX_Inst_2553303104_sigSevereBPosUndervoltage_14634_13989_12777_sgn_val
                0x0000000000044b17                Com_TX_Inst_2553303104_sigSevereKSIUndervoltage_14633_13989_12777_sgn_val
                0x0000000000044b18                Com_TX_Inst_2553303104_sigSevereBPosOvervoltage_14632_13989_12777_sgn_val
                0x0000000000044b19                Com_TX_Inst_2553303104_sigSevereKSIOvervoltage_14631_13989_12777_sgn_val
                0x0000000000044b1a                Com_TX_Inst_2553303104_sigControllerOvertempCutback_14630_13989_12777_sgn_val
                0x0000000000044b1b                Com_TX_Inst_2553303104_sigBPosUndervoltageCutback_14629_13989_12777_sgn_val
                0x0000000000044b1c                Com_TX_Inst_2553303104_sigBPosOvervoltageCutback_14628_13989_12777_sgn_val
                0x0000000000044b1d                Com_TX_Inst_2553303104_sig5VSupplyFailure_14627_13989_12777_sgn_val
                0x0000000000044b1e                Com_TX_Inst_2553303104_sigMotorTempHotCutback_14626_13989_12777_sgn_val
                0x0000000000044b1f                Com_TX_Inst_2553303104_sigMotorTempSensorFault_14625_13989_12777_sgn_val
                0x0000000000044b20                Com_TX_Inst_2553303104_sigMainOpenShort_14624_13989_12777_sgn_val
                0x0000000000044b21                Com_TX_Inst_2553303104_sigSinCosSensorFault_14623_13989_12777_sgn_val
                0x0000000000044b22                Com_TX_Inst_2553303104_sigMotorPhaseOpen_14622_13989_12777_sgn_val
                0x0000000000044b23                Com_TX_Inst_2553303104_sigMainContactorWelded_14621_13989_12777_sgn_val
                0x0000000000044b24                Com_TX_Inst_2553303104_sigMainContactordidnotClose_14620_13989_12777_sgn_val
                0x0000000000044b25                Com_TX_Inst_2553303104_sigThrottlewiperHigh_14619_13989_12777_sgn_val
                0x0000000000044b26                Com_TX_Inst_2553303104_sigThrottlewiperLow_14618_13989_12777_sgn_val
                0x0000000000044b27                Com_TX_Inst_2553303104_sigEEPROMFailure_14617_13989_12777_sgn_val
                0x0000000000044b28                Com_TX_Inst_2553303104_sigVCLRunTimeError_14616_13989_12777_sgn_val
                0x0000000000044b29                Com_TX_Inst_2553303104_sigMotorCharacterization_14615_13989_12777_sgn_val
                0x0000000000044b2a                Com_TX_Inst_2553303104_sigParameterChangeFault_14614_13989_12777_sgn_val
                0x0000000000044b2b                Com_TX_Inst_2553303104_sigStallDetected_14613_13989_12777_sgn_val
                0x0000000000044b2c                Com_TX_Inst_2553303104_sigBrakeWiperHigh_14612_13989_12777_sgn_val
                0x0000000000044b2d                Com_TX_Inst_2553303104_sigBrakeWiperLow_14611_13989_12777_sgn_val
                0x0000000000044b2e                Com_TX_Inst_2553303104_sigHighPedalDisable_14610_13989_12777_sgn_val
                0x0000000000044b2f                Com_TX_Inst_2553303104_sigCoil4DriverOpenShort_14609_13989_12777_sgn_val
                0x0000000000044b30                Com_TX_Inst_2553303104_sigCoil3DriverOpenShort_14608_13989_12777_sgn_val
                0x0000000000044b31                Com_TX_Inst_2553303104_sigSupervisorFault_14607_13989_12777_sgn_val
                0x0000000000044b32                Com_TX_Inst_2553303104_sigBadCalibration_14606_13989_12777_sgn_val
                0x0000000000044b33                Com_TX_Inst_2553303104_sigPMACCommissioningNeeded_14605_13989_12777_sgn_val
                0x0000000000044b34                Com_TX_Inst_2553303104_sigSinCosMisalignment_14604_13989_12777_sgn_val
                0x0000000000044b35                Com_TX_Inst_2553303104_sigPhasePWMMismatch_14603_13989_12777_sgn_val
                0x0000000000044b36                Com_TX_Inst_2553303104_sigInsulationResistanceLow_14602_13989_12777_sgn_val
                0x0000000000044b37                Com_TX_Inst_2553303104_sigOSGeneral_14601_13989_12777_sgn_val
                0x0000000000044b38                Com_TX_Inst_2553303104_sigOEM_NoBatteryCAN_14600_13989_12777_sgn_val
                0x0000000000044b39                Com_TX_Inst_2553303104_sigOEM_BatterySTOPSignal_14599_13989_12777_sgn_val
                0x0000000000044b3a                Com_TX_Inst_2553303104_sigCoil2DriverOpenShort_14598_13989_12777_sgn_val
                0x0000000000044b3b                Com_TX_Inst_2553303104_Controller_CompleteFaults_14597_13989_12777_sgn_val
                0x0000000000044b3c                Com_TX_Inst_2552758145_sigMCU6_Odometer_14591_13989_12777_sgn_val
                0x0000000000044b40                Com_TX_Inst_2552713280_sigMotorRPM_14643_13989_12777_sgn_val
                0x0000000000044b42                Com_TX_Inst_2552713280_sigCapacitorVoltage_14642_13989_12777_sgn_val
                0x0000000000044b44                Com_TX_Inst_2552713280_sigOdometer_14641_13989_12777_sgn_val
                0x0000000000044b48                Com_TX_Inst_2552692609_sigMCU5_DriveMode_14596_13989_12777_sgn_val
                0x0000000000044b49                Com_TX_Inst_2552692609_sigMCU5_RegenFlag_14595_13989_12777_sgn_val
                0x0000000000044b4a                Com_TX_Inst_2552692609_sigMCU5_Speed_14594_13989_12777_sgn_val
                0x0000000000044b4b                Com_TX_Inst_2552692609_sigMCU5_Hillhold_14593_13989_12777_sgn_val
                0x0000000000044b4c                Com_TX_Inst_2552692609_sigMCU5_Efficiency_14592_13989_12777_sgn_val
                0x0000000000044b4d                Com_TX_Inst_2552647744_sigControllerTemperature_14650_13989_12777_sgn_val
                0x0000000000044b4e                Com_TX_Inst_2552647744_sigMotorTemperature_14649_13989_12777_sgn_val
                0x0000000000044b50                Com_TX_Inst_2552647744_sigRMSCurrent_14648_13989_12777_sgn_val
                0x0000000000044b52                Com_TX_Inst_2552647744_sigThrottle_14647_13989_12777_sgn_val
                0x0000000000044b53                Com_TX_Inst_2552647744_sigSpeed_14646_13989_12777_sgn_val
                0x0000000000044b54                Com_TX_Inst_2552647744_sigDriveMode_14645_13989_12777_sgn_val
                0x0000000000044b55                Com_TX_Inst_2552647744_sigBrake_14644_13989_12777_sgn_val
                0x0000000000044b56                Com_TX_CANChannel_MainController_IPDUTriggering_1_MainController_CCU_heartBeat_SignalInstance_1_14665_13989_12777_sgn_val
                0x0000000000044b57                Com_TX_CANChannel_MainController_IPDUTriggering_1_MainController_steeringPower_SignalInstance_1_14664_13989_12777_sgn_val
                0x0000000000044b58                Com_TX_CANChannel_MainController_IPDUTriggering_1_MainController_notUsed_SignalInstance_1_14663_13989_12777_sgn_val
                0x0000000000044b59                Com_TX_CANChannel_MainController_IPDUTriggering_1_MainController_setDirection_SignalInstance_1_14662_13989_12777_sgn_val
                0x0000000000044b5a                Com_TX_CANChannel_MainController_IPDUTriggering_1_MainController_setAutoParkBreak_SignalInstance_1_14661_13989_12777_sgn_val
                0x0000000000044b5b                Com_TX_CANChannel_MainController_IPDUTriggering_1_MainController_setBreake_SignalInstance_1_14660_13989_12777_sgn_val
                0x0000000000044b5c                Com_TX_CANChannel_MainController_IPDUTriggering_1_MainController_setVelocity_SignalInstance_1_14659_13989_12777_sgn_val
                0x0000000000044b5d                Com_TX_CANChannel_MainController_IPDUTriggering_1_MainController_setDriveMode_SignalInstance_1_14658_13989_12777_sgn_val
 .bss           0x0000000000044c20       0x30 C:\Users\MURTI\AppData\Local\Temp\dSPACE\CfgDesk\AppCache\3\Build\EXP_03\Compile\TCU_12777_1\TCU_12777_1.a(Com_Rx_generated.o64)
                0x0000000000044c20                Com_RX_Inst_2485338192_sigBatteryCurrent_14654_13989_12777_sgn_val
                0x0000000000044c22                Com_RX_Inst_2485338192_sigDriveCurrentLimit_14653_13989_12777_sgn_val
                0x0000000000044c23                Com_RX_Inst_2485338192_sigRegenCurrentLimit_14652_13989_12777_sgn_val
                0x0000000000044c24                Com_RX_Inst_2485338192_sigVehicleModeRequest_14651_13989_12777_sgn_val
 .bss           0x0000000000044c50        0x0 C:\Users\MURTI\AppData\Local\Temp\dSPACE\CfgDesk\AppCache\3\Build\EXP_03\Compile\TCU_12777_1\TCU_12777_1.a(PduR_Cfg_generated.o64)
 .bss           0x0000000000044c50        0x0 C:\Users\MURTI\AppData\Local\Temp\dSPACE\CfgDesk\AppCache\3\Build\EXP_03\Compile\TCU_12777_1\TCU_12777_1.a(PduR_generated.o64)
 .bss           0x0000000000044c50        0x4 C:\Users\MURTI\AppData\Local\Temp\dSPACE\CfgDesk\AppCache\3\Build\EXP_03\Compile\TCU_12777_1\TCU_12777_1.a(SchM_CanIf.o64)
 *fill*         0x0000000000044c54        0x4 
 .bss           0x0000000000044c58       0x41 C:\Users\MURTI\AppData\Local\Temp\dSPACE\CfgDesk\AppCache\3\Build\EXP_03\Compile\Telematics_12777_1\Telematics_12777_1.a(CanIf.o64)
 *fill*         0x0000000000044c99        0x7 
 .bss           0x0000000000044ca0       0xe5 C:\Users\MURTI\AppData\Local\Temp\dSPACE\CfgDesk\AppCache\3\Build\EXP_03\Compile\Telematics_12777_1\Telematics_12777_1.a(CanIf_Cfg.o64)
                0x0000000000044ca0                BM_BUS_CONFIGURATION_i1_i12777_1_TELEMATICS_g_CntrlFlags
 .bss           0x0000000000044d85        0x0 C:\Users\MURTI\AppData\Local\Temp\dSPACE\CfgDesk\AppCache\3\Build\EXP_03\Compile\Telematics_12777_1\Telematics_12777_1.a(CanIf_Cfg_BusAccess.o64)
 *fill*         0x0000000000044d85        0x3 
 .bss           0x0000000000044d88       0x4e C:\Users\MURTI\AppData\Local\Temp\dSPACE\CfgDesk\AppCache\3\Build\EXP_03\Compile\Telematics_12777_1\Telematics_12777_1.a(Rte_generated.o64)
 *fill*         0x0000000000044dd6        0x2 
 .bss           0x0000000000044dd8        0x4 C:\Users\MURTI\AppData\Local\Temp\dSPACE\CfgDesk\AppCache\3\Build\EXP_03\Compile\Telematics_12777_1\Telematics_12777_1.a(Com_generated.o64)
                0x0000000000044dd8                BM_BUS_CONFIGURATION_i1_i12777_1_TELEMATICS_Com_Status
 .bss           0x0000000000044ddc        0x0 C:\Users\MURTI\AppData\Local\Temp\dSPACE\CfgDesk\AppCache\3\Build\EXP_03\Compile\Telematics_12777_1\Telematics_12777_1.a(Com_Tx_generated.o64)
 *fill*         0x0000000000044ddc        0x4 
 .bss           0x0000000000044de0      0x12d C:\Users\MURTI\AppData\Local\Temp\dSPACE\CfgDesk\AppCache\3\Build\EXP_03\Compile\Telematics_12777_1\Telematics_12777_1.a(Com_Rx_generated.o64)
                0x0000000000044de0                Com_RX_Inst_2553303104_sigControllerCommonFault_14640_13988_12777_sgn_val
                0x0000000000044de1                Com_RX_Inst_2553303104_sigControllerOverCurrent_14639_13988_12777_sgn_val
                0x0000000000044de2                Com_RX_Inst_2553303104_sigCurrentSensorFault_14638_13988_12777_sgn_val
                0x0000000000044de3                Com_RX_Inst_2553303104_sigPrechargeFailed_14637_13988_12777_sgn_val
                0x0000000000044de4                Com_RX_Inst_2553303104_sigControllerSevereUndertemp_14636_13988_12777_sgn_val
                0x0000000000044de5                Com_RX_Inst_2553303104_sigControllerSevereOvertemp_14635_13988_12777_sgn_val
                0x0000000000044de6                Com_RX_Inst_2553303104_sigSevereBPosUndervoltage_14634_13988_12777_sgn_val
                0x0000000000044de7                Com_RX_Inst_2553303104_sigSevereKSIUndervoltage_14633_13988_12777_sgn_val
                0x0000000000044de8                Com_RX_Inst_2553303104_sigSevereBPosOvervoltage_14632_13988_12777_sgn_val
                0x0000000000044de9                Com_RX_Inst_2553303104_sigSevereKSIOvervoltage_14631_13988_12777_sgn_val
                0x0000000000044dea                Com_RX_Inst_2553303104_sigControllerOvertempCutback_14630_13988_12777_sgn_val
                0x0000000000044deb                Com_RX_Inst_2553303104_sigBPosUndervoltageCutback_14629_13988_12777_sgn_val
                0x0000000000044dec                Com_RX_Inst_2553303104_sigBPosOvervoltageCutback_14628_13988_12777_sgn_val
                0x0000000000044ded                Com_RX_Inst_2553303104_sig5VSupplyFailure_14627_13988_12777_sgn_val
                0x0000000000044dee                Com_RX_Inst_2553303104_sigMotorTempHotCutback_14626_13988_12777_sgn_val
                0x0000000000044def                Com_RX_Inst_2553303104_sigMotorTempSensorFault_14625_13988_12777_sgn_val
                0x0000000000044df0                Com_RX_Inst_2553303104_sigMainOpenShort_14624_13988_12777_sgn_val
                0x0000000000044df1                Com_RX_Inst_2553303104_sigSinCosSensorFault_14623_13988_12777_sgn_val
                0x0000000000044df2                Com_RX_Inst_2553303104_sigMotorPhaseOpen_14622_13988_12777_sgn_val
                0x0000000000044df3                Com_RX_Inst_2553303104_sigMainContactorWelded_14621_13988_12777_sgn_val
                0x0000000000044df4                Com_RX_Inst_2553303104_sigMainContactordidnotClose_14620_13988_12777_sgn_val
                0x0000000000044df5                Com_RX_Inst_2553303104_sigThrottlewiperHigh_14619_13988_12777_sgn_val
                0x0000000000044df6                Com_RX_Inst_2553303104_sigThrottlewiperLow_14618_13988_12777_sgn_val
                0x0000000000044df7                Com_RX_Inst_2553303104_sigEEPROMFailure_14617_13988_12777_sgn_val
                0x0000000000044df8                Com_RX_Inst_2553303104_sigVCLRunTimeError_14616_13988_12777_sgn_val
                0x0000000000044df9                Com_RX_Inst_2553303104_sigMotorCharacterization_14615_13988_12777_sgn_val
                0x0000000000044dfa                Com_RX_Inst_2553303104_sigParameterChangeFault_14614_13988_12777_sgn_val
                0x0000000000044dfb                Com_RX_Inst_2553303104_sigStallDetected_14613_13988_12777_sgn_val
                0x0000000000044dfc                Com_RX_Inst_2553303104_sigBrakeWiperHigh_14612_13988_12777_sgn_val
                0x0000000000044dfd                Com_RX_Inst_2553303104_sigBrakeWiperLow_14611_13988_12777_sgn_val
                0x0000000000044dfe                Com_RX_Inst_2553303104_sigHighPedalDisable_14610_13988_12777_sgn_val
                0x0000000000044dff                Com_RX_Inst_2553303104_sigCoil4DriverOpenShort_14609_13988_12777_sgn_val
                0x0000000000044e00                Com_RX_Inst_2553303104_sigCoil3DriverOpenShort_14608_13988_12777_sgn_val
                0x0000000000044e01                Com_RX_Inst_2553303104_sigSupervisorFault_14607_13988_12777_sgn_val
                0x0000000000044e02                Com_RX_Inst_2553303104_sigBadCalibration_14606_13988_12777_sgn_val
                0x0000000000044e03                Com_RX_Inst_2553303104_sigPMACCommissioningNeeded_14605_13988_12777_sgn_val
                0x0000000000044e04                Com_RX_Inst_2553303104_sigSinCosMisalignment_14604_13988_12777_sgn_val
                0x0000000000044e05                Com_RX_Inst_2553303104_sigPhasePWMMismatch_14603_13988_12777_sgn_val
                0x0000000000044e06                Com_RX_Inst_2553303104_sigInsulationResistanceLow_14602_13988_12777_sgn_val
                0x0000000000044e07                Com_RX_Inst_2553303104_sigOSGeneral_14601_13988_12777_sgn_val
                0x0000000000044e08                Com_RX_Inst_2553303104_sigOEM_NoBatteryCAN_14600_13988_12777_sgn_val
                0x0000000000044e09                Com_RX_Inst_2553303104_sigOEM_BatterySTOPSignal_14599_13988_12777_sgn_val
                0x0000000000044e0a                Com_RX_Inst_2553303104_sigCoil2DriverOpenShort_14598_13988_12777_sgn_val
                0x0000000000044e0b                Com_RX_Inst_2553303104_Controller_CompleteFaults_14597_13988_12777_sgn_val
                0x0000000000044e0c                Com_RX_Inst_2552758145_sigMCU6_Odometer_14591_13988_12777_sgn_val
                0x0000000000044e10                Com_RX_Inst_2552713280_sigMotorRPM_14643_13988_12777_sgn_val
                0x0000000000044e12                Com_RX_Inst_2552713280_sigCapacitorVoltage_14642_13988_12777_sgn_val
                0x0000000000044e14                Com_RX_Inst_2552713280_sigOdometer_14641_13988_12777_sgn_val
                0x0000000000044e18                Com_RX_Inst_2552692609_sigMCU5_DriveMode_14596_13988_12777_sgn_val
                0x0000000000044e19                Com_RX_Inst_2552692609_sigMCU5_RegenFlag_14595_13988_12777_sgn_val
                0x0000000000044e1a                Com_RX_Inst_2552692609_sigMCU5_Speed_14594_13988_12777_sgn_val
                0x0000000000044e1b                Com_RX_Inst_2552692609_sigMCU5_Hillhold_14593_13988_12777_sgn_val
                0x0000000000044e1c                Com_RX_Inst_2552692609_sigMCU5_Efficiency_14592_13988_12777_sgn_val
                0x0000000000044e1d                Com_RX_Inst_2552647744_sigControllerTemperature_14650_13988_12777_sgn_val
                0x0000000000044e1e                Com_RX_Inst_2552647744_sigMotorTemperature_14649_13988_12777_sgn_val
                0x0000000000044e20                Com_RX_Inst_2552647744_sigRMSCurrent_14648_13988_12777_sgn_val
                0x0000000000044e22                Com_RX_Inst_2552647744_sigThrottle_14647_13988_12777_sgn_val
                0x0000000000044e23                Com_RX_Inst_2552647744_sigSpeed_14646_13988_12777_sgn_val
                0x0000000000044e24                Com_RX_Inst_2552647744_sigDriveMode_14645_13988_12777_sgn_val
                0x0000000000044e25                Com_RX_Inst_2552647744_sigBrake_14644_13988_12777_sgn_val
                0x0000000000044e26                Com_RX_Inst_2485338192_sigBatteryCurrent_14654_13988_12777_sgn_val
                0x0000000000044e28                Com_RX_Inst_2485338192_sigDriveCurrentLimit_14653_13988_12777_sgn_val
                0x0000000000044e29                Com_RX_Inst_2485338192_sigRegenCurrentLimit_14652_13988_12777_sgn_val
                0x0000000000044e2a                Com_RX_Inst_2485338192_sigVehicleModeRequest_14651_13988_12777_sgn_val
                0x0000000000044e2b                Com_RX_Inst_2418544720_sigStateOfCharge_14657_13988_12777_sgn_val
                0x0000000000044e2c                Com_RX_Inst_2418544720_sigKeyOnIndicator_14656_13988_12777_sgn_val
                0x0000000000044e2d                Com_RX_Inst_2418544720_sigBatteryMalfunctionLight_14655_13988_12777_sgn_val
 .bss           0x0000000000044f0d        0x0 C:\Users\MURTI\AppData\Local\Temp\dSPACE\CfgDesk\AppCache\3\Build\EXP_03\Compile\Telematics_12777_1\Telematics_12777_1.a(PduR_Cfg_generated.o64)
 .bss           0x0000000000044f0d        0x0 C:\Users\MURTI\AppData\Local\Temp\dSPACE\CfgDesk\AppCache\3\Build\EXP_03\Compile\Telematics_12777_1\Telematics_12777_1.a(PduR_generated.o64)
 *fill*         0x0000000000044f0d        0x3 
 .bss           0x0000000000044f10        0x4 C:\Users\MURTI\AppData\Local\Temp\dSPACE\CfgDesk\AppCache\3\Build\EXP_03\Compile\Telematics_12777_1\Telematics_12777_1.a(SchM_CanIf.o64)
 .bss           0x0000000000044f14        0x0 C:\Users\MURTI\AppData\Local\Temp\dSPACE\CfgDesk\AppCache\3\Build\EXP_03\Compile\Manipulation_12777_1\Manipulation_12777_1.a(CanManipulation.o64)
 .bss           0x0000000000044f14        0x0 C:\Users\MURTI\AppData\Local\Temp\dSPACE\CfgDesk\AppCache\3\Build\EXP_03\Compile\Manipulation_12777_1\Manipulation_12777_1.a(CanManipulation_Cfg.o64)
 .bss           0x0000000000044f14      0x258 C:\Users\MURTI\AppData\Local\Temp\dSPACE\CfgDesk\AppCache\3\Build\EXP_03\Compile\Manipulation_12777_1\Manipulation_12777_1.a(CAN0_0.o64)
 .bss           0x000000000004516c        0x0 C:\Users\MURTI\AppData\Local\Temp\dSPACE\CfgDesk\AppCache\3\Build\EXP_03\Compile\Manipulation_12777_1\Manipulation_12777_1.a(ManipulationInterface.o64)
 .bss           0x000000000004516c        0x0 C:\Users\MURTI\AppData\Local\Temp\dSPACE\CfgDesk\AppCache\3\Build\EXP_03\Compile\Manipulation_12777_1\Manipulation_12777_1.a(ManipulationInit_0.o64)
 *fill*         0x000000000004516c       0x14 
 .bss           0x0000000000045180       0x78 C:\Users\MURTI\AppData\Local\Temp\dSPACE\CfgDesk\AppCache\3\Build\EXP_03\Compile\ManipulationHook_21408\ManipulationHook_21408.a(ManipulationHook.o64)
                0x0000000000045180                cbkHandler
 .bss           0x00000000000451f8        0x0 C:\Program Files\dSPACE RCPHIL 2023-B\Compiler\Linux_4.14_GCC_10.3\target\x86_64-linux-gnu\lib\libc_nonshared.a(elf-init.oS)
 .bss           0x00000000000451f8        0x0 c:/program files/dspace rcphil 2023-b/compiler/linux_4.14_gcc_10.3/target/x86_64-linux-gnu/bin/../lib/gcc/x86_64-linux-gnu/10.3.0/crtendS.o
 .bss           0x00000000000451f8        0x0 c:/program files/dspace rcphil 2023-b/compiler/linux_4.14_gcc_10.3/target/x86_64-linux-gnu/bin/../../x86_64-linux-gnu/lib/crtn.o
 *(COMMON)
                0x00000000000451f8                . = ALIGN ((. != 0x0)?0x8:0x1)

.lbss
 *(.dynlbss)
 *(.lbss .lbss.* .gnu.linkonce.lb.*)
 *(LARGE_COMMON)
                0x00000000000451f8                . = ALIGN (0x8)
                0x00000000000451f8                . = SEGMENT_START ("ldata-segment", .)

.lrodata
 *(.lrodata .lrodata.* .gnu.linkonce.lr.*)

.ldata          0x00000000000471f8        0x0
 *(.ldata .ldata.* .gnu.linkonce.l.*)
                0x00000000000471f8                . = ALIGN ((. != 0x0)?0x8:0x1)
                0x00000000000471f8                . = ALIGN (0x8)
                0x00000000000451f8                _end = .
                [!provide]                        PROVIDE (end = .)
                0x00000000000471f8                . = DATA_SEGMENT_END (.)

.stab
 *(.stab)

.stabstr
 *(.stabstr)

.stab.excl
 *(.stab.excl)

.stab.exclstr
 *(.stab.exclstr)

.stab.index
 *(.stab.index)

.stab.indexstr
 *(.stab.indexstr)

.comment        0x0000000000000000       0x3c
 *(.comment)
 .comment       0x0000000000000000       0x12 c:/program files/dspace rcphil 2023-b/compiler/linux_4.14_gcc_10.3/target/x86_64-linux-gnu/bin/../../x86_64-linux-gnu/lib/Scrt1.o
                                         0x26 (size before relaxing)
 .comment       0x0000000000000012       0x2a c:/program files/dspace rcphil 2023-b/compiler/linux_4.14_gcc_10.3/target/x86_64-linux-gnu/bin/../lib/gcc/x86_64-linux-gnu/10.3.0/crtbeginS.o
                                         0x2b (size before relaxing)
 .comment       0x000000000000003c       0x13 StateManager_generated.o64
 .comment       0x000000000000003c       0x13 ScalingFunctions.o64
 .comment       0x000000000000003c       0x13 Hashmap.o64
 .comment       0x000000000000003c       0x13 HelperMethods.o64
 .comment       0x000000000000003c       0x13 mdladapter_mdlfunctions.o64
 .comment       0x000000000000003c       0x13 mdlCode_ap.o64
 .comment       0x000000000000003c       0x13 data_in_ap.o64
 .comment       0x000000000000003c       0x13 data_out_ap.o64
 .comment       0x000000000000003c       0x13 fm_entry_ap.o64
 .comment       0x000000000000003c       0x13 fm_exit_ap.o64
 .comment       0x000000000000003c       0x13 dssimengine_accesspoint.o64
 .comment       0x000000000000003c       0x13 dssimengine_api.o64
 .comment       0x000000000000003c       0x13 dssimengine_main.o64
 .comment       0x000000000000003c       0x13 rtosal_task.o64
 .comment       0x000000000000003c       0x13 rtosal_taskap.o64
 .comment       0x000000000000003c       0x13 rtosal_simengineap.o64
 .comment       0x000000000000003c       0x13 IOCode_Data.o64
 .comment       0x000000000000003c       0x13 dssimengine_accesspoint_CAN.o64
 .comment       0x000000000000003c       0x13 IOCode_TestAutomationInit_0.o64
 .comment       0x000000000000003c       0x13 BusManager_Bus_Configuration_i1_i12777_1.o64
 .comment       0x000000000000003c       0x13 Bus_Configuration_i1_i12777.o64
 .comment       0x000000000000003c       0x13 Bus_Configuration_i1_i12777_tx.o64
 .comment       0x000000000000003c       0x13 Bus_Configuration_i1_i12777_if.o64
 .comment       0x000000000000003c       0x13 Bus_Configuration_i1_i12777_CAN.o64
 .comment       0x000000000000003c       0x13 BusRtCode.o64
 .comment       0x000000000000003c       0x13 ConvertHwTimeToSimTime.o64
 .comment       0x000000000000003c       0x13 C:\Users\MURTI\AppData\Local\Temp\dSPACE\CfgDesk\AppCache\3\Build\EXP_03\Compile\DriveSystemControl\DriveSystemControl.a(DriveSystemControl_dsrtmdlfcn.o64)
 .comment       0x000000000000003c       0x13 C:\Users\MURTI\AppData\Local\Temp\dSPACE\CfgDesk\AppCache\3\Build\EXP_03\Compile\DriveSystemControl\DriveSystemControl.a(DriveSystemControl_dsrttf.o64)
 .comment       0x000000000000003c       0x13 C:\Users\MURTI\AppData\Local\Temp\dSPACE\CfgDesk\AppCache\3\Build\EXP_03\Compile\DriveSystemControl\DriveSystemControl.a(DriveSystemControl.o64)
 .comment       0x000000000000003c       0x13 C:\Users\MURTI\AppData\Local\Temp\dSPACE\CfgDesk\AppCache\3\Build\EXP_03\Compile\DriveSystemControl\DriveSystemControl.a(DriveSystemControl_data.o64)
 .comment       0x000000000000003c       0x13 C:\Users\MURTI\AppData\Local\Temp\dSPACE\CfgDesk\AppCache\3\Build\EXP_03\Compile\DriveSystemControl\DriveSystemControl.a(DriveSystemControl_dsmpb_bd.o64)
 .comment       0x000000000000003c       0x13 C:\Users\MURTI\AppData\Local\Temp\dSPACE\CfgDesk\AppCache\3\Build\EXP_03\Compile\DriveSystemControl\DriveSystemControl.a(DriveSystemControl_dsrtvdf.o64)
 .comment       0x000000000000003c       0x13 C:\Users\MURTI\AppData\Local\Temp\dSPACE\CfgDesk\AppCache\3\Build\EXP_03\Compile\Inspection_12777_1\Inspection_12777_1.a(CanInspection.o64)
 .comment       0x000000000000003c       0x13 C:\Users\MURTI\AppData\Local\Temp\dSPACE\CfgDesk\AppCache\3\Build\EXP_03\Compile\Inspection_12777_1\Inspection_12777_1.a(CanInspection_Cfg.o64)
 .comment       0x000000000000003c       0x13 C:\Users\MURTI\AppData\Local\Temp\dSPACE\CfgDesk\AppCache\3\Build\EXP_03\Compile\Inspection_12777_1\Inspection_12777_1.a(InspectionInterface.o64)
 .comment       0x000000000000003c       0x13 C:\Users\MURTI\AppData\Local\Temp\dSPACE\CfgDesk\AppCache\3\Build\EXP_03\Compile\BMS_12777_1\BMS_12777_1.a(CanIf.o64)
 .comment       0x000000000000003c       0x13 C:\Users\MURTI\AppData\Local\Temp\dSPACE\CfgDesk\AppCache\3\Build\EXP_03\Compile\BMS_12777_1\BMS_12777_1.a(CanIf_Cfg.o64)
 .comment       0x000000000000003c       0x13 C:\Users\MURTI\AppData\Local\Temp\dSPACE\CfgDesk\AppCache\3\Build\EXP_03\Compile\BMS_12777_1\BMS_12777_1.a(CanIf_Cfg_BusAccess.o64)
 .comment       0x000000000000003c       0x13 C:\Users\MURTI\AppData\Local\Temp\dSPACE\CfgDesk\AppCache\3\Build\EXP_03\Compile\BMS_12777_1\BMS_12777_1.a(Rte_generated.o64)
 .comment       0x000000000000003c       0x13 C:\Users\MURTI\AppData\Local\Temp\dSPACE\CfgDesk\AppCache\3\Build\EXP_03\Compile\BMS_12777_1\BMS_12777_1.a(Com_generated.o64)
 .comment       0x000000000000003c       0x13 C:\Users\MURTI\AppData\Local\Temp\dSPACE\CfgDesk\AppCache\3\Build\EXP_03\Compile\BMS_12777_1\BMS_12777_1.a(Com_Tx_generated.o64)
 .comment       0x000000000000003c       0x13 C:\Users\MURTI\AppData\Local\Temp\dSPACE\CfgDesk\AppCache\3\Build\EXP_03\Compile\BMS_12777_1\BMS_12777_1.a(Com_Rx_generated.o64)
 .comment       0x000000000000003c       0x13 C:\Users\MURTI\AppData\Local\Temp\dSPACE\CfgDesk\AppCache\3\Build\EXP_03\Compile\BMS_12777_1\BMS_12777_1.a(PduR_Cfg_generated.o64)
 .comment       0x000000000000003c       0x13 C:\Users\MURTI\AppData\Local\Temp\dSPACE\CfgDesk\AppCache\3\Build\EXP_03\Compile\BMS_12777_1\BMS_12777_1.a(PduR_generated.o64)
 .comment       0x000000000000003c       0x13 C:\Users\MURTI\AppData\Local\Temp\dSPACE\CfgDesk\AppCache\3\Build\EXP_03\Compile\BMS_12777_1\BMS_12777_1.a(SchM_CanIf.o64)
 .comment       0x000000000000003c       0x13 C:\Users\MURTI\AppData\Local\Temp\dSPACE\CfgDesk\AppCache\3\Build\EXP_03\Compile\IPC_12777_1\IPC_12777_1.a(CanIf.o64)
 .comment       0x000000000000003c       0x13 C:\Users\MURTI\AppData\Local\Temp\dSPACE\CfgDesk\AppCache\3\Build\EXP_03\Compile\IPC_12777_1\IPC_12777_1.a(CanIf_Cfg.o64)
 .comment       0x000000000000003c       0x13 C:\Users\MURTI\AppData\Local\Temp\dSPACE\CfgDesk\AppCache\3\Build\EXP_03\Compile\IPC_12777_1\IPC_12777_1.a(CanIf_Cfg_BusAccess.o64)
 .comment       0x000000000000003c       0x13 C:\Users\MURTI\AppData\Local\Temp\dSPACE\CfgDesk\AppCache\3\Build\EXP_03\Compile\IPC_12777_1\IPC_12777_1.a(Rte_generated.o64)
 .comment       0x000000000000003c       0x13 C:\Users\MURTI\AppData\Local\Temp\dSPACE\CfgDesk\AppCache\3\Build\EXP_03\Compile\IPC_12777_1\IPC_12777_1.a(Com_generated.o64)
 .comment       0x000000000000003c       0x13 C:\Users\MURTI\AppData\Local\Temp\dSPACE\CfgDesk\AppCache\3\Build\EXP_03\Compile\IPC_12777_1\IPC_12777_1.a(Com_Tx_generated.o64)
 .comment       0x000000000000003c       0x13 C:\Users\MURTI\AppData\Local\Temp\dSPACE\CfgDesk\AppCache\3\Build\EXP_03\Compile\IPC_12777_1\IPC_12777_1.a(Com_Rx_generated.o64)
 .comment       0x000000000000003c       0x13 C:\Users\MURTI\AppData\Local\Temp\dSPACE\CfgDesk\AppCache\3\Build\EXP_03\Compile\IPC_12777_1\IPC_12777_1.a(PduR_Cfg_generated.o64)
 .comment       0x000000000000003c       0x13 C:\Users\MURTI\AppData\Local\Temp\dSPACE\CfgDesk\AppCache\3\Build\EXP_03\Compile\IPC_12777_1\IPC_12777_1.a(PduR_generated.o64)
 .comment       0x000000000000003c       0x13 C:\Users\MURTI\AppData\Local\Temp\dSPACE\CfgDesk\AppCache\3\Build\EXP_03\Compile\IPC_12777_1\IPC_12777_1.a(SchM_CanIf.o64)
 .comment       0x000000000000003c       0x13 C:\Users\MURTI\AppData\Local\Temp\dSPACE\CfgDesk\AppCache\3\Build\EXP_03\Compile\TCU_12777_1\TCU_12777_1.a(CanIf.o64)
 .comment       0x000000000000003c       0x13 C:\Users\MURTI\AppData\Local\Temp\dSPACE\CfgDesk\AppCache\3\Build\EXP_03\Compile\TCU_12777_1\TCU_12777_1.a(CanIf_Cfg.o64)
 .comment       0x000000000000003c       0x13 C:\Users\MURTI\AppData\Local\Temp\dSPACE\CfgDesk\AppCache\3\Build\EXP_03\Compile\TCU_12777_1\TCU_12777_1.a(CanIf_Cfg_BusAccess.o64)
 .comment       0x000000000000003c       0x13 C:\Users\MURTI\AppData\Local\Temp\dSPACE\CfgDesk\AppCache\3\Build\EXP_03\Compile\TCU_12777_1\TCU_12777_1.a(Rte_generated.o64)
 .comment       0x000000000000003c       0x13 C:\Users\MURTI\AppData\Local\Temp\dSPACE\CfgDesk\AppCache\3\Build\EXP_03\Compile\TCU_12777_1\TCU_12777_1.a(Com_generated.o64)
 .comment       0x000000000000003c       0x13 C:\Users\MURTI\AppData\Local\Temp\dSPACE\CfgDesk\AppCache\3\Build\EXP_03\Compile\TCU_12777_1\TCU_12777_1.a(Com_Tx_generated.o64)
 .comment       0x000000000000003c       0x13 C:\Users\MURTI\AppData\Local\Temp\dSPACE\CfgDesk\AppCache\3\Build\EXP_03\Compile\TCU_12777_1\TCU_12777_1.a(Com_Rx_generated.o64)
 .comment       0x000000000000003c       0x13 C:\Users\MURTI\AppData\Local\Temp\dSPACE\CfgDesk\AppCache\3\Build\EXP_03\Compile\TCU_12777_1\TCU_12777_1.a(PduR_Cfg_generated.o64)
 .comment       0x000000000000003c       0x13 C:\Users\MURTI\AppData\Local\Temp\dSPACE\CfgDesk\AppCache\3\Build\EXP_03\Compile\TCU_12777_1\TCU_12777_1.a(PduR_generated.o64)
 .comment       0x000000000000003c       0x13 C:\Users\MURTI\AppData\Local\Temp\dSPACE\CfgDesk\AppCache\3\Build\EXP_03\Compile\TCU_12777_1\TCU_12777_1.a(SchM_CanIf.o64)
 .comment       0x000000000000003c       0x13 C:\Users\MURTI\AppData\Local\Temp\dSPACE\CfgDesk\AppCache\3\Build\EXP_03\Compile\Telematics_12777_1\Telematics_12777_1.a(CanIf.o64)
 .comment       0x000000000000003c       0x13 C:\Users\MURTI\AppData\Local\Temp\dSPACE\CfgDesk\AppCache\3\Build\EXP_03\Compile\Telematics_12777_1\Telematics_12777_1.a(CanIf_Cfg.o64)
 .comment       0x000000000000003c       0x13 C:\Users\MURTI\AppData\Local\Temp\dSPACE\CfgDesk\AppCache\3\Build\EXP_03\Compile\Telematics_12777_1\Telematics_12777_1.a(CanIf_Cfg_BusAccess.o64)
 .comment       0x000000000000003c       0x13 C:\Users\MURTI\AppData\Local\Temp\dSPACE\CfgDesk\AppCache\3\Build\EXP_03\Compile\Telematics_12777_1\Telematics_12777_1.a(Rte_generated.o64)
 .comment       0x000000000000003c       0x13 C:\Users\MURTI\AppData\Local\Temp\dSPACE\CfgDesk\AppCache\3\Build\EXP_03\Compile\Telematics_12777_1\Telematics_12777_1.a(Com_generated.o64)
 .comment       0x000000000000003c       0x13 C:\Users\MURTI\AppData\Local\Temp\dSPACE\CfgDesk\AppCache\3\Build\EXP_03\Compile\Telematics_12777_1\Telematics_12777_1.a(Com_Tx_generated.o64)
 .comment       0x000000000000003c       0x13 C:\Users\MURTI\AppData\Local\Temp\dSPACE\CfgDesk\AppCache\3\Build\EXP_03\Compile\Telematics_12777_1\Telematics_12777_1.a(Com_Rx_generated.o64)
 .comment       0x000000000000003c       0x13 C:\Users\MURTI\AppData\Local\Temp\dSPACE\CfgDesk\AppCache\3\Build\EXP_03\Compile\Telematics_12777_1\Telematics_12777_1.a(PduR_Cfg_generated.o64)
 .comment       0x000000000000003c       0x13 C:\Users\MURTI\AppData\Local\Temp\dSPACE\CfgDesk\AppCache\3\Build\EXP_03\Compile\Telematics_12777_1\Telematics_12777_1.a(PduR_generated.o64)
 .comment       0x000000000000003c       0x13 C:\Users\MURTI\AppData\Local\Temp\dSPACE\CfgDesk\AppCache\3\Build\EXP_03\Compile\Telematics_12777_1\Telematics_12777_1.a(SchM_CanIf.o64)
 .comment       0x000000000000003c       0x13 C:\Users\MURTI\AppData\Local\Temp\dSPACE\CfgDesk\AppCache\3\Build\EXP_03\Compile\Manipulation_12777_1\Manipulation_12777_1.a(CanManipulation.o64)
 .comment       0x000000000000003c       0x13 C:\Users\MURTI\AppData\Local\Temp\dSPACE\CfgDesk\AppCache\3\Build\EXP_03\Compile\Manipulation_12777_1\Manipulation_12777_1.a(CanManipulation_Cfg.o64)
 .comment       0x000000000000003c       0x13 C:\Users\MURTI\AppData\Local\Temp\dSPACE\CfgDesk\AppCache\3\Build\EXP_03\Compile\Manipulation_12777_1\Manipulation_12777_1.a(CAN0_0.o64)
 .comment       0x000000000000003c       0x13 C:\Users\MURTI\AppData\Local\Temp\dSPACE\CfgDesk\AppCache\3\Build\EXP_03\Compile\Manipulation_12777_1\Manipulation_12777_1.a(ManipulationInterface.o64)
 .comment       0x000000000000003c       0x13 C:\Users\MURTI\AppData\Local\Temp\dSPACE\CfgDesk\AppCache\3\Build\EXP_03\Compile\Manipulation_12777_1\Manipulation_12777_1.a(ManipulationInit_0.o64)
 .comment       0x000000000000003c       0x13 C:\Users\MURTI\AppData\Local\Temp\dSPACE\CfgDesk\AppCache\3\Build\EXP_03\Compile\ManipulationHook_21408\ManipulationHook_21408.a(ManipulationHook.o64)
 .comment       0x000000000000003c       0x13 C:\Program Files\dSPACE RCPHIL 2023-B\Compiler\Linux_4.14_GCC_10.3\target\x86_64-linux-gnu\lib\libc_nonshared.a(elf-init.oS)
 .comment       0x000000000000003c       0x2b c:/program files/dspace rcphil 2023-b/compiler/linux_4.14_gcc_10.3/target/x86_64-linux-gnu/bin/../lib/gcc/x86_64-linux-gnu/10.3.0/crtendS.o

.gnu.build.attributes
 *(.gnu.build.attributes .gnu.build.attributes.*)

.debug
 *(.debug)

.line
 *(.line)

.debug_srcinfo
 *(.debug_srcinfo)

.debug_sfnames
 *(.debug_sfnames)

.debug_aranges  0x0000000000000000      0x120
 *(.debug_aranges)
 .debug_aranges
                0x0000000000000000       0x70 c:/program files/dspace rcphil 2023-b/compiler/linux_4.14_gcc_10.3/target/x86_64-linux-gnu/bin/../../x86_64-linux-gnu/lib/Scrt1.o
 .debug_aranges
                0x0000000000000070       0x40 c:/program files/dspace rcphil 2023-b/compiler/linux_4.14_gcc_10.3/target/x86_64-linux-gnu/bin/../../x86_64-linux-gnu/lib/crti.o
 .debug_aranges
                0x00000000000000b0       0x30 C:\Program Files\dSPACE RCPHIL 2023-B\Compiler\Linux_4.14_GCC_10.3\target\x86_64-linux-gnu\lib\libc_nonshared.a(elf-init.oS)
 .debug_aranges
                0x00000000000000e0       0x40 c:/program files/dspace rcphil 2023-b/compiler/linux_4.14_gcc_10.3/target/x86_64-linux-gnu/bin/../../x86_64-linux-gnu/lib/crtn.o

.debug_pubnames
 *(.debug_pubnames)

.debug_info     0x0000000000000000      0x71c
 *(.debug_info .gnu.linkonce.wi.*)
 .debug_info    0x0000000000000000      0x53f c:/program files/dspace rcphil 2023-b/compiler/linux_4.14_gcc_10.3/target/x86_64-linux-gnu/bin/../../x86_64-linux-gnu/lib/Scrt1.o
 .debug_info    0x000000000000053f       0x22 c:/program files/dspace rcphil 2023-b/compiler/linux_4.14_gcc_10.3/target/x86_64-linux-gnu/bin/../../x86_64-linux-gnu/lib/crti.o
 .debug_info    0x0000000000000561      0x199 C:\Program Files\dSPACE RCPHIL 2023-B\Compiler\Linux_4.14_GCC_10.3\target\x86_64-linux-gnu\lib\libc_nonshared.a(elf-init.oS)
 .debug_info    0x00000000000006fa       0x22 c:/program files/dspace rcphil 2023-b/compiler/linux_4.14_gcc_10.3/target/x86_64-linux-gnu/bin/../../x86_64-linux-gnu/lib/crtn.o

.debug_abbrev   0x0000000000000000      0x2a1
 *(.debug_abbrev)
 .debug_abbrev  0x0000000000000000      0x153 c:/program files/dspace rcphil 2023-b/compiler/linux_4.14_gcc_10.3/target/x86_64-linux-gnu/bin/../../x86_64-linux-gnu/lib/Scrt1.o
 .debug_abbrev  0x0000000000000153       0x12 c:/program files/dspace rcphil 2023-b/compiler/linux_4.14_gcc_10.3/target/x86_64-linux-gnu/bin/../../x86_64-linux-gnu/lib/crti.o
 .debug_abbrev  0x0000000000000165      0x12a C:\Program Files\dSPACE RCPHIL 2023-B\Compiler\Linux_4.14_GCC_10.3\target\x86_64-linux-gnu\lib\libc_nonshared.a(elf-init.oS)
 .debug_abbrev  0x000000000000028f       0x12 c:/program files/dspace rcphil 2023-b/compiler/linux_4.14_gcc_10.3/target/x86_64-linux-gnu/bin/../../x86_64-linux-gnu/lib/crtn.o

.debug_line     0x0000000000000000      0x332
 *(.debug_line .debug_line.* .debug_line_end)
 .debug_line    0x0000000000000000      0x154 c:/program files/dspace rcphil 2023-b/compiler/linux_4.14_gcc_10.3/target/x86_64-linux-gnu/bin/../../x86_64-linux-gnu/lib/Scrt1.o
 .debug_line    0x0000000000000154       0x65 c:/program files/dspace rcphil 2023-b/compiler/linux_4.14_gcc_10.3/target/x86_64-linux-gnu/bin/../../x86_64-linux-gnu/lib/crti.o
 .debug_line    0x00000000000001b9      0x118 C:\Program Files\dSPACE RCPHIL 2023-B\Compiler\Linux_4.14_GCC_10.3\target\x86_64-linux-gnu\lib\libc_nonshared.a(elf-init.oS)
 .debug_line    0x00000000000002d1       0x61 c:/program files/dspace rcphil 2023-b/compiler/linux_4.14_gcc_10.3/target/x86_64-linux-gnu/bin/../../x86_64-linux-gnu/lib/crtn.o

.debug_frame
 *(.debug_frame)

.debug_str      0x0000000000000000      0x4b6
 *(.debug_str)
 .debug_str     0x0000000000000000      0x366 c:/program files/dspace rcphil 2023-b/compiler/linux_4.14_gcc_10.3/target/x86_64-linux-gnu/bin/../../x86_64-linux-gnu/lib/Scrt1.o
                                        0x4e6 (size before relaxing)
 .debug_str     0x0000000000000366       0x19 c:/program files/dspace rcphil 2023-b/compiler/linux_4.14_gcc_10.3/target/x86_64-linux-gnu/bin/../../x86_64-linux-gnu/lib/crti.o
                                         0x51 (size before relaxing)
 .debug_str     0x000000000000037f      0x11e C:\Program Files\dSPACE RCPHIL 2023-B\Compiler\Linux_4.14_GCC_10.3\target\x86_64-linux-gnu\lib\libc_nonshared.a(elf-init.oS)
                                        0x18a (size before relaxing)
 .debug_str     0x000000000000049d       0x19 c:/program files/dspace rcphil 2023-b/compiler/linux_4.14_gcc_10.3/target/x86_64-linux-gnu/bin/../../x86_64-linux-gnu/lib/crtn.o
                                         0x51 (size before relaxing)

.debug_loc      0x0000000000000000      0x16f
 *(.debug_loc)
 .debug_loc     0x0000000000000000      0x16f C:\Program Files\dSPACE RCPHIL 2023-B\Compiler\Linux_4.14_GCC_10.3\target\x86_64-linux-gnu\lib\libc_nonshared.a(elf-init.oS)

.debug_macinfo
 *(.debug_macinfo)

.debug_weaknames
 *(.debug_weaknames)

.debug_funcnames
 *(.debug_funcnames)

.debug_typenames
 *(.debug_typenames)

.debug_varnames
 *(.debug_varnames)

.debug_pubtypes
 *(.debug_pubtypes)

.debug_ranges   0x0000000000000000       0x80
 *(.debug_ranges)
 .debug_ranges  0x0000000000000000       0x40 c:/program files/dspace rcphil 2023-b/compiler/linux_4.14_gcc_10.3/target/x86_64-linux-gnu/bin/../../x86_64-linux-gnu/lib/crti.o
 .debug_ranges  0x0000000000000040       0x40 c:/program files/dspace rcphil 2023-b/compiler/linux_4.14_gcc_10.3/target/x86_64-linux-gnu/bin/../../x86_64-linux-gnu/lib/crtn.o

.debug_macro
 *(.debug_macro)

.debug_addr
 *(.debug_addr)

.gnu.attributes
 *(.gnu.attributes)

/DISCARD/
 *(.note.GNU-stack)
 *(.gnu_debuglink)
 *(.gnu.lto_*)
OUTPUT(EXP_03.x64 elf64-x86-64)
